
TempControl.elf:     file format elf32-avr

Sections:
Idx Name          Size      VMA       LMA       File off  Algn
  0 .data         0000015e  00800100  00001c8e  00001d22  2**0
                  CONTENTS, ALLOC, LOAD, DATA
  1 .text         00001c8e  00000000  00000000  00000094  2**1
                  CONTENTS, ALLOC, LOAD, READONLY, CODE
  2 .bss          00000157  0080025e  0080025e  00001e80  2**0
                  ALLOC
  3 .comment      0000005c  00000000  00000000  00001e80  2**0
                  CONTENTS, READONLY
  4 .note.gnu.avr.deviceinfo 0000003c  00000000  00000000  00001edc  2**2
                  CONTENTS, READONLY
  5 .debug_aranges 00000338  00000000  00000000  00001f18  2**0
                  CONTENTS, READONLY, DEBUGGING
  6 .debug_info   00003eb3  00000000  00000000  00002250  2**0
                  CONTENTS, READONLY, DEBUGGING
  7 .debug_abbrev 00001817  00000000  00000000  00006103  2**0
                  CONTENTS, READONLY, DEBUGGING
  8 .debug_line   00001d8c  00000000  00000000  0000791a  2**0
                  CONTENTS, READONLY, DEBUGGING
  9 .debug_frame  00000900  00000000  00000000  000096a8  2**2
                  CONTENTS, READONLY, DEBUGGING
 10 .debug_str    00000df8  00000000  00000000  00009fa8  2**0
                  CONTENTS, READONLY, DEBUGGING
 11 .debug_loc    0000269d  00000000  00000000  0000ada0  2**0
                  CONTENTS, READONLY, DEBUGGING
 12 .debug_ranges 000002c0  00000000  00000000  0000d43d  2**0
                  CONTENTS, READONLY, DEBUGGING

Disassembly of section .text:

00000000 <__vectors>:
       0:	0c 94 b5 00 	jmp	0x16a	; 0x16a <__ctors_end>
       4:	0c 94 d2 00 	jmp	0x1a4	; 0x1a4 <__bad_interrupt>
       8:	0c 94 d2 00 	jmp	0x1a4	; 0x1a4 <__bad_interrupt>
       c:	0c 94 d2 00 	jmp	0x1a4	; 0x1a4 <__bad_interrupt>
      10:	0c 94 d2 00 	jmp	0x1a4	; 0x1a4 <__bad_interrupt>
      14:	0c 94 d2 00 	jmp	0x1a4	; 0x1a4 <__bad_interrupt>
      18:	0c 94 d2 00 	jmp	0x1a4	; 0x1a4 <__bad_interrupt>
      1c:	0c 94 d2 00 	jmp	0x1a4	; 0x1a4 <__bad_interrupt>
      20:	0c 94 d2 00 	jmp	0x1a4	; 0x1a4 <__bad_interrupt>
      24:	0c 94 d2 00 	jmp	0x1a4	; 0x1a4 <__bad_interrupt>
      28:	0c 94 d2 00 	jmp	0x1a4	; 0x1a4 <__bad_interrupt>
      2c:	0c 94 d2 00 	jmp	0x1a4	; 0x1a4 <__bad_interrupt>
      30:	0c 94 d2 00 	jmp	0x1a4	; 0x1a4 <__bad_interrupt>
      34:	0c 94 d2 00 	jmp	0x1a4	; 0x1a4 <__bad_interrupt>
      38:	0c 94 d2 00 	jmp	0x1a4	; 0x1a4 <__bad_interrupt>
      3c:	0c 94 d2 00 	jmp	0x1a4	; 0x1a4 <__bad_interrupt>
      40:	0c 94 d2 00 	jmp	0x1a4	; 0x1a4 <__bad_interrupt>
      44:	0c 94 c7 03 	jmp	0x78e	; 0x78e <__vector_17>
      48:	0c 94 d2 00 	jmp	0x1a4	; 0x1a4 <__bad_interrupt>
      4c:	0c 94 59 09 	jmp	0x12b2	; 0x12b2 <__vector_19>
      50:	0c 94 ee 08 	jmp	0x11dc	; 0x11dc <__vector_20>
      54:	0c 94 d2 00 	jmp	0x1a4	; 0x1a4 <__bad_interrupt>
      58:	0c 94 d2 00 	jmp	0x1a4	; 0x1a4 <__bad_interrupt>
      5c:	0c 94 93 09 	jmp	0x1326	; 0x1326 <__vector_23>
      60:	0c 94 28 09 	jmp	0x1250	; 0x1250 <__vector_24>
      64:	0c 94 d2 00 	jmp	0x1a4	; 0x1a4 <__bad_interrupt>
      68:	0c 94 d2 00 	jmp	0x1a4	; 0x1a4 <__bad_interrupt>
      6c:	0c 94 d2 00 	jmp	0x1a4	; 0x1a4 <__bad_interrupt>

00000070 <__trampolines_end>:
      70:	6e 31       	cpi	r22, 0x1E	; 30
      72:	38 2e       	mov	r3, r24
      74:	76 61       	ori	r23, 0x16	; 22
      76:	6c 3d       	cpi	r22, 0xDC	; 220
	...

00000079 <__c.2547>:
      79:	6e 31 39 2e 76 61 6c 3d 00                          n19.val=.

00000082 <__c.2549>:
      82:	70 39 2e 70 69 63 3d 00                             p9.pic=.

0000008a <__c.2539>:
      8a:	6e 31 36 2e 76 61 6c 3d 00                          n16.val=.

00000093 <__c.2541>:
      93:	6e 31 37 2e 76 61 6c 3d 00                          n17.val=.

0000009c <__c.2543>:
      9c:	70 38 2e 70 69 63 3d 00                             p8.pic=.

000000a4 <__c.2533>:
      a4:	6e 31 34 2e 76 61 6c 3d 00                          n14.val=.

000000ad <__c.2535>:
      ad:	6e 31 35 2e 76 61 6c 3d 00                          n15.val=.

000000b6 <__c.2537>:
      b6:	70 37 2e 70 69 63 3d 00                             p7.pic=.

000000be <__c.2527>:
      be:	6e 31 32 2e 76 61 6c 3d 00                          n12.val=.

000000c7 <__c.2529>:
      c7:	6e 31 33 2e 76 61 6c 3d 00                          n13.val=.

000000d0 <__c.2531>:
      d0:	70 36 2e 70 69 63 3d 00                             p6.pic=.

000000d8 <__c.2521>:
      d8:	6e 31 30 2e 76 61 6c 3d 00                          n10.val=.

000000e1 <__c.2523>:
      e1:	6e 31 31 2e 76 61 6c 3d 00                          n11.val=.

000000ea <__c.2525>:
      ea:	70 35 2e 70 69 63 3d 00                             p5.pic=.

000000f2 <__c.2515>:
      f2:	6e 38 2e 76 61 6c 3d 00                             n8.val=.

000000fa <__c.2517>:
      fa:	6e 39 2e 76 61 6c 3d 00                             n9.val=.

00000102 <__c.2519>:
     102:	70 34 2e 70 69 63 3d 00                             p4.pic=.

0000010a <__c.2509>:
     10a:	6e 36 2e 76 61 6c 3d 00                             n6.val=.

00000112 <__c.2511>:
     112:	6e 37 2e 76 61 6c 3d 00                             n7.val=.

0000011a <__c.2513>:
     11a:	70 33 2e 70 69 63 3d 00                             p3.pic=.

00000122 <__c.2503>:
     122:	6e 34 2e 76 61 6c 3d 00                             n4.val=.

0000012a <__c.2505>:
     12a:	6e 35 2e 76 61 6c 3d 00                             n5.val=.

00000132 <__c.2507>:
     132:	70 32 2e 70 69 63 3d 00                             p2.pic=.

0000013a <__c.2497>:
     13a:	6e 32 2e 76 61 6c 3d 00                             n2.val=.

00000142 <__c.2499>:
     142:	6e 33 2e 76 61 6c 3d 00                             n3.val=.

0000014a <__c.2501>:
     14a:	70 31 2e 70 69 63 3d 00                             p1.pic=.

00000152 <__c.2491>:
     152:	6e 30 2e 76 61 6c 3d 00                             n0.val=.

0000015a <__c.2493>:
     15a:	6e 31 2e 76 61 6c 3d 00                             n1.val=.

00000162 <__c.2495>:
     162:	70 30 2e 70 69 63 3d 00                             p0.pic=.

0000016a <__ctors_end>:
     16a:	11 24       	eor	r1, r1
     16c:	1f be       	out	0x3f, r1	; 63
     16e:	cf ef       	ldi	r28, 0xFF	; 255
     170:	d4 e0       	ldi	r29, 0x04	; 4
     172:	de bf       	out	0x3e, r29	; 62
     174:	cd bf       	out	0x3d, r28	; 61

00000176 <__do_copy_data>:
     176:	12 e0       	ldi	r17, 0x02	; 2
     178:	a0 e0       	ldi	r26, 0x00	; 0
     17a:	b1 e0       	ldi	r27, 0x01	; 1
     17c:	ee e8       	ldi	r30, 0x8E	; 142
     17e:	fc e1       	ldi	r31, 0x1C	; 28
     180:	02 c0       	rjmp	.+4      	; 0x186 <__do_copy_data+0x10>
     182:	05 90       	lpm	r0, Z+
     184:	0d 92       	st	X+, r0
     186:	ae 35       	cpi	r26, 0x5E	; 94
     188:	b1 07       	cpc	r27, r17
     18a:	d9 f7       	brne	.-10     	; 0x182 <__do_copy_data+0xc>

0000018c <__do_clear_bss>:
     18c:	23 e0       	ldi	r18, 0x03	; 3
     18e:	ae e5       	ldi	r26, 0x5E	; 94
     190:	b2 e0       	ldi	r27, 0x02	; 2
     192:	01 c0       	rjmp	.+2      	; 0x196 <.do_clear_bss_start>

00000194 <.do_clear_bss_loop>:
     194:	1d 92       	st	X+, r1

00000196 <.do_clear_bss_start>:
     196:	a5 3b       	cpi	r26, 0xB5	; 181
     198:	b2 07       	cpc	r27, r18
     19a:	e1 f7       	brne	.-8      	; 0x194 <.do_clear_bss_loop>
     19c:	0e 94 06 06 	call	0xc0c	; 0xc0c <main>
     1a0:	0c 94 45 0e 	jmp	0x1c8a	; 0x1c8a <_exit>

000001a4 <__bad_interrupt>:
     1a4:	0c 94 00 00 	jmp	0	; 0x0 <__vectors>

000001a8 <assert>:
#include <avr/io.h>
#include <util/delay.h>

void assert(bool value, uint8_t blink){
	
	if(!value){
     1a8:	81 11       	cpse	r24, r1
     1aa:	1b c0       	rjmp	.+54     	; 0x1e2 <assert+0x3a>
		for(uint8_t i=0; i < blink; i++){
     1ac:	66 23       	and	r22, r22
     1ae:	c1 f0       	breq	.+48     	; 0x1e0 <assert+0x38>
			PORTC = 0b00000001;
     1b0:	91 e0       	ldi	r25, 0x01	; 1
     1b2:	95 bb       	out	0x15, r25	; 21
	#else
		//round up by default
		__ticks_dc = (uint32_t)(ceil(fabs(__tmp)));
	#endif

	__builtin_avr_delay_cycles(__ticks_dc);
     1b4:	2f ef       	ldi	r18, 0xFF	; 255
     1b6:	39 e6       	ldi	r19, 0x69	; 105
     1b8:	48 e1       	ldi	r20, 0x18	; 24
     1ba:	21 50       	subi	r18, 0x01	; 1
     1bc:	30 40       	sbci	r19, 0x00	; 0
     1be:	40 40       	sbci	r20, 0x00	; 0
     1c0:	e1 f7       	brne	.-8      	; 0x1ba <assert+0x12>
     1c2:	00 c0       	rjmp	.+0      	; 0x1c4 <assert+0x1c>
     1c4:	00 00       	nop
			_delay_ms(500);
			PORTC = 0;
     1c6:	15 ba       	out	0x15, r1	; 21
     1c8:	2f ef       	ldi	r18, 0xFF	; 255
     1ca:	39 e6       	ldi	r19, 0x69	; 105
     1cc:	48 e1       	ldi	r20, 0x18	; 24
     1ce:	21 50       	subi	r18, 0x01	; 1
     1d0:	30 40       	sbci	r19, 0x00	; 0
     1d2:	40 40       	sbci	r20, 0x00	; 0
     1d4:	e1 f7       	brne	.-8      	; 0x1ce <assert+0x26>
     1d6:	00 c0       	rjmp	.+0      	; 0x1d8 <assert+0x30>
     1d8:	00 00       	nop
#include <util/delay.h>

void assert(bool value, uint8_t blink){
	
	if(!value){
		for(uint8_t i=0; i < blink; i++){
     1da:	8f 5f       	subi	r24, 0xFF	; 255
     1dc:	68 13       	cpse	r22, r24
     1de:	e9 cf       	rjmp	.-46     	; 0x1b2 <assert+0xa>
     1e0:	ff cf       	rjmp	.-2      	; 0x1e0 <assert+0x38>
     1e2:	08 95       	ret

000001e4 <events_init>:
	event_t items[MAX_ITEMS];
} events = {0};

void events_init(size_t size)
{
	events.size = MAX_ITEMS;
     1e4:	80 e1       	ldi	r24, 0x10	; 16
     1e6:	90 e0       	ldi	r25, 0x00	; 0
     1e8:	90 93 5f 02 	sts	0x025F, r25	; 0x80025f <__data_end+0x1>
     1ec:	80 93 5e 02 	sts	0x025E, r24	; 0x80025e <__data_end>
     1f0:	08 95       	ret

000001f2 <events_put>:
	//events.items = calloc(size, sizeof(event_t));
}

void events_put(event_t event)
{
     1f2:	cf 93       	push	r28
     1f4:	c8 2f       	mov	r28, r24
	assert(events.in != (events.out - 1 + events.size) % events.size, 1);
     1f6:	ee e5       	ldi	r30, 0x5E	; 94
     1f8:	f2 e0       	ldi	r31, 0x02	; 2
     1fa:	60 81       	ld	r22, Z
     1fc:	71 81       	ldd	r23, Z+1	; 0x01
     1fe:	84 81       	ldd	r24, Z+4	; 0x04
     200:	95 81       	ldd	r25, Z+5	; 0x05
     202:	86 0f       	add	r24, r22
     204:	97 1f       	adc	r25, r23
     206:	01 97       	sbiw	r24, 0x01	; 1
     208:	0e 94 ee 0a 	call	0x15dc	; 0x15dc <__udivmodhi4>
     20c:	ac 01       	movw	r20, r24
     20e:	81 e0       	ldi	r24, 0x01	; 1
     210:	22 81       	ldd	r18, Z+2	; 0x02
     212:	33 81       	ldd	r19, Z+3	; 0x03
     214:	42 17       	cp	r20, r18
     216:	53 07       	cpc	r21, r19
     218:	09 f4       	brne	.+2      	; 0x21c <events_put+0x2a>
     21a:	80 e0       	ldi	r24, 0x00	; 0
     21c:	61 e0       	ldi	r22, 0x01	; 1
     21e:	0e 94 d4 00 	call	0x1a8	; 0x1a8 <assert>
	events.items[events.in] = event;
     222:	ee e5       	ldi	r30, 0x5E	; 94
     224:	f2 e0       	ldi	r31, 0x02	; 2
     226:	82 81       	ldd	r24, Z+2	; 0x02
     228:	93 81       	ldd	r25, Z+3	; 0x03
     22a:	dc 01       	movw	r26, r24
     22c:	a2 5a       	subi	r26, 0xA2	; 162
     22e:	bd 4f       	sbci	r27, 0xFD	; 253
     230:	16 96       	adiw	r26, 0x06	; 6
     232:	cc 93       	st	X, r28
	events.in = (events.in + 1) % events.size;
     234:	01 96       	adiw	r24, 0x01	; 1
     236:	60 81       	ld	r22, Z
     238:	71 81       	ldd	r23, Z+1	; 0x01
     23a:	0e 94 ee 0a 	call	0x15dc	; 0x15dc <__udivmodhi4>
     23e:	93 83       	std	Z+3, r25	; 0x03
     240:	82 83       	std	Z+2, r24	; 0x02
}
     242:	cf 91       	pop	r28
     244:	08 95       	ret

00000246 <events_get>:

event_t events_get()
{
	event_t e = EV_NONE;

	if (events.in != events.out)
     246:	ee e5       	ldi	r30, 0x5E	; 94
     248:	f2 e0       	ldi	r31, 0x02	; 2
     24a:	84 81       	ldd	r24, Z+4	; 0x04
     24c:	95 81       	ldd	r25, Z+5	; 0x05
     24e:	22 81       	ldd	r18, Z+2	; 0x02
     250:	33 81       	ldd	r19, Z+3	; 0x03
     252:	28 17       	cp	r18, r24
     254:	39 07       	cpc	r19, r25
     256:	69 f0       	breq	.+26     	; 0x272 <events_get+0x2c>
	{
		e = events.items[events.out];
     258:	dc 01       	movw	r26, r24
     25a:	a2 5a       	subi	r26, 0xA2	; 162
     25c:	bd 4f       	sbci	r27, 0xFD	; 253
     25e:	16 96       	adiw	r26, 0x06	; 6
     260:	2c 91       	ld	r18, X
	
		events.out = (events.out + 1) % events.size;
     262:	01 96       	adiw	r24, 0x01	; 1
     264:	60 81       	ld	r22, Z
     266:	71 81       	ldd	r23, Z+1	; 0x01
     268:	0e 94 ee 0a 	call	0x15dc	; 0x15dc <__udivmodhi4>
     26c:	95 83       	std	Z+5, r25	; 0x05
     26e:	84 83       	std	Z+4, r24	; 0x04
     270:	01 c0       	rjmp	.+2      	; 0x274 <events_get+0x2e>
	events.in = (events.in + 1) % events.size;
}

event_t events_get()
{
	event_t e = EV_NONE;
     272:	20 e0       	ldi	r18, 0x00	; 0
	
		events.out = (events.out + 1) % events.size;
	}

	return e;
}
     274:	82 2f       	mov	r24, r18
     276:	08 95       	ret

00000278 <save_founded_device>:
static void device_config(void){
	timer_stop(sensor_poll_timer);
	_state = STATE_CONFIG;
}

static void save_founded_device(void){
     278:	08 95       	ret

0000027a <forget_selected_device>:
	
}

static void forget_selected_device(void){
     27a:	08 95       	ret

0000027c <ignored>:
	
}

static void ignored(void){
     27c:	08 95       	ret

0000027e <refresh_sensor_data>:
	nextion_display_create_row(&_rows[8], PSTR("n16.val="),PSTR("n17.val="),PSTR("p8.pic="));
	nextion_display_create_row(&_rows[9], PSTR("n18.val="),PSTR("n19.val="),PSTR("p9.pic="));
	
}

static void refresh_sensor_data(ds18b20_t *sensor, display_row* row){
     27e:	cf 93       	push	r28
     280:	df 93       	push	r29
	
	if(sensor->status == DEVICE_FOUND){
     282:	fc 01       	movw	r30, r24
     284:	25 85       	ldd	r18, Z+13	; 0x0d
     286:	26 30       	cpi	r18, 0x06	; 6
     288:	29 f5       	brne	.+74     	; 0x2d4 <refresh_sensor_data+0x56>
     28a:	eb 01       	movw	r28, r22
		
		row->whole.value = sensor->temperature >> 4;
     28c:	80 85       	ldd	r24, Z+8	; 0x08
     28e:	91 85       	ldd	r25, Z+9	; 0x09
     290:	92 95       	swap	r25
     292:	82 95       	swap	r24
     294:	8f 70       	andi	r24, 0x0F	; 15
     296:	89 27       	eor	r24, r25
     298:	9f 70       	andi	r25, 0x0F	; 15
     29a:	89 27       	eor	r24, r25
     29c:	89 83       	std	Y+1, r24	; 0x01
}

static uint8_t get_frac(uint16_t *value)
{
	uint8_t frac = *value & 0x000F;
	float temp = (float)frac;
     29e:	60 85       	ldd	r22, Z+8	; 0x08
     2a0:	6f 70       	andi	r22, 0x0F	; 15
     2a2:	70 e0       	ldi	r23, 0x00	; 0
     2a4:	80 e0       	ldi	r24, 0x00	; 0
     2a6:	90 e0       	ldi	r25, 0x00	; 0
     2a8:	0e 94 f3 09 	call	0x13e6	; 0x13e6 <__floatunsisf>
	temp /=16.0f;
     2ac:	20 e0       	ldi	r18, 0x00	; 0
     2ae:	30 e0       	ldi	r19, 0x00	; 0
     2b0:	40 e8       	ldi	r20, 0x80	; 128
     2b2:	5d e3       	ldi	r21, 0x3D	; 61
     2b4:	0e 94 59 0a 	call	0x14b2	; 0x14b2 <__mulsf3>
static void refresh_sensor_data(ds18b20_t *sensor, display_row* row){
	
	if(sensor->status == DEVICE_FOUND){
		
		row->whole.value = sensor->temperature >> 4;
		row->frac.value = get_frac(&sensor->temperature);
     2b8:	20 e0       	ldi	r18, 0x00	; 0
     2ba:	30 e0       	ldi	r19, 0x00	; 0
     2bc:	48 ec       	ldi	r20, 0xC8	; 200
     2be:	52 e4       	ldi	r21, 0x42	; 66
     2c0:	0e 94 59 0a 	call	0x14b2	; 0x14b2 <__mulsf3>
     2c4:	0e 94 c4 09 	call	0x1388	; 0x1388 <__fixunssfsi>
     2c8:	6d 83       	std	Y+5, r22	; 0x05
		row->conn.value = 1;
     2ca:	81 e0       	ldi	r24, 0x01	; 1
     2cc:	89 87       	std	Y+9, r24	; 0x09
		nextion_display_refresh_row(row);
     2ce:	ce 01       	movw	r24, r28
     2d0:	0e 94 e9 06 	call	0xdd2	; 0xdd2 <nextion_display_refresh_row>
	}
}
     2d4:	df 91       	pop	r29
     2d6:	cf 91       	pop	r28
     2d8:	08 95       	ret

000002da <sensors_polling>:
		usart_read(display_usart, &_recieved_cmd_id, sizeof(_recieved_cmd_id));
		events_put((event_t)_recieved_cmd_id.cmd);
	}
}

static void sensors_polling(void){
     2da:	cf 92       	push	r12
     2dc:	df 92       	push	r13
     2de:	ef 92       	push	r14
     2e0:	ff 92       	push	r15
     2e2:	0f 93       	push	r16
     2e4:	1f 93       	push	r17
     2e6:	cf 93       	push	r28
     2e8:	df 93       	push	r29
     2ea:	c2 ef       	ldi	r28, 0xF2	; 242
     2ec:	d2 e0       	ldi	r29, 0x02	; 2
     2ee:	0a e7       	ldi	r16, 0x7A	; 122
     2f0:	12 e0       	ldi	r17, 0x02	; 2
     2f2:	0f 2e       	mov	r0, r31
     2f4:	fe e7       	ldi	r31, 0x7E	; 126
     2f6:	ef 2e       	mov	r14, r31
     2f8:	f3 e0       	ldi	r31, 0x03	; 3
     2fa:	ff 2e       	mov	r15, r31
     2fc:	f0 2d       	mov	r31, r0
	for(uint8_t i=0; i < NUM_OF_SENSORS; i++) //
	{
		
		if(_sensors[i].status == DEVICE_FOUND)
     2fe:	8d 85       	ldd	r24, Y+13	; 0x0d
     300:	86 30       	cpi	r24, 0x06	; 6
     302:	51 f4       	brne	.+20     	; 0x318 <sensors_polling+0x3e>
		{
			
			device_state state = ds18b20_get_temperature(&_sensors[i]);
     304:	ce 01       	movw	r24, r28
     306:	0e 94 90 05 	call	0xb20	; 0xb20 <ds18b20_get_temperature>
			if(state == DEVICE_OK)
     30a:	81 30       	cpi	r24, 0x01	; 1
     30c:	29 f4       	brne	.+10     	; 0x318 <sensors_polling+0x3e>
			{
				
				refresh_sensor_data(&_sensors[i],&_rows[i]);
     30e:	b8 01       	movw	r22, r16
     310:	8c 2f       	mov	r24, r28
     312:	9d 2f       	mov	r25, r29
     314:	0e 94 3f 01 	call	0x27e	; 0x27e <refresh_sensor_data>
     318:	2e 96       	adiw	r28, 0x0e	; 14
     31a:	04 5f       	subi	r16, 0xF4	; 244
     31c:	1f 4f       	sbci	r17, 0xFF	; 255
		events_put((event_t)_recieved_cmd_id.cmd);
	}
}

static void sensors_polling(void){
	for(uint8_t i=0; i < NUM_OF_SENSORS; i++) //
     31e:	ce 15       	cp	r28, r14
     320:	df 05       	cpc	r29, r15
     322:	69 f7       	brne	.-38     	; 0x2fe <sensors_polling+0x24>
				
				refresh_sensor_data(&_sensors[i],&_rows[i]);
			}
		}
	}
}
     324:	df 91       	pop	r29
     326:	cf 91       	pop	r28
     328:	1f 91       	pop	r17
     32a:	0f 91       	pop	r16
     32c:	ff 90       	pop	r15
     32e:	ef 90       	pop	r14
     330:	df 90       	pop	r13
     332:	cf 90       	pop	r12
     334:	08 95       	ret

00000336 <device_config>:
	timer_restart(sensor_poll_timer, SENSOR_POLL_TIMEOUT);
	_state = STATE_RUN;
}

static void device_config(void){
	timer_stop(sensor_poll_timer);
     336:	80 91 81 03 	lds	r24, 0x0381	; 0x800381 <sensor_poll_timer>
     33a:	0e 94 8f 03 	call	0x71e	; 0x71e <timer_stop>
	_state = STATE_CONFIG;
     33e:	10 92 83 03 	sts	0x0383, r1	; 0x800383 <_state>
     342:	08 95       	ret

00000344 <device_run>:
		}
	}
}

static void device_run(void){
	timer_restart(sensor_poll_timer, SENSOR_POLL_TIMEOUT);
     344:	64 ef       	ldi	r22, 0xF4	; 244
     346:	71 e0       	ldi	r23, 0x01	; 1
     348:	80 91 81 03 	lds	r24, 0x0381	; 0x800381 <sensor_poll_timer>
     34c:	0e 94 7e 03 	call	0x6fc	; 0x6fc <timer_restart>
	_state = STATE_RUN;
     350:	81 e0       	ldi	r24, 0x01	; 1
     352:	80 93 83 03 	sts	0x0383, r24	; 0x800383 <_state>
     356:	08 95       	ret

00000358 <search_device>:
		refresh_sensor_data(&_sensors[_recieved_cmd_id.sensor_id],&_rows[_recieved_cmd_id.sensor_id]);
	}
}

static void search_device(void){
	device_state state = ds18b20_read_rom(&_sensors[_recieved_cmd_id.sensor_id]);
     358:	20 91 75 02 	lds	r18, 0x0275	; 0x800275 <_recieved_cmd_id+0x1>
     35c:	30 e0       	ldi	r19, 0x00	; 0
     35e:	22 0f       	add	r18, r18
     360:	33 1f       	adc	r19, r19
     362:	c9 01       	movw	r24, r18
     364:	88 0f       	add	r24, r24
     366:	99 1f       	adc	r25, r25
     368:	88 0f       	add	r24, r24
     36a:	99 1f       	adc	r25, r25
     36c:	88 0f       	add	r24, r24
     36e:	99 1f       	adc	r25, r25
     370:	82 1b       	sub	r24, r18
     372:	93 0b       	sbc	r25, r19
     374:	8e 50       	subi	r24, 0x0E	; 14
     376:	9d 4f       	sbci	r25, 0xFD	; 253
     378:	0e 94 f6 04 	call	0x9ec	; 0x9ec <ds18b20_read_rom>
	if(state == DEVICE_OK)
     37c:	81 30       	cpi	r24, 0x01	; 1
     37e:	a1 f5       	brne	.+104    	; 0x3e8 <search_device+0x90>
	{
		_sensors[_recieved_cmd_id.sensor_id].status = DEVICE_FOUND;
     380:	20 91 75 02 	lds	r18, 0x0275	; 0x800275 <_recieved_cmd_id+0x1>
     384:	30 e0       	ldi	r19, 0x00	; 0
     386:	22 0f       	add	r18, r18
     388:	33 1f       	adc	r19, r19
     38a:	c9 01       	movw	r24, r18
     38c:	88 0f       	add	r24, r24
     38e:	99 1f       	adc	r25, r25
     390:	88 0f       	add	r24, r24
     392:	99 1f       	adc	r25, r25
     394:	88 0f       	add	r24, r24
     396:	99 1f       	adc	r25, r25
     398:	82 1b       	sub	r24, r18
     39a:	93 0b       	sbc	r25, r19
     39c:	8e 50       	subi	r24, 0x0E	; 14
     39e:	9d 4f       	sbci	r25, 0xFD	; 253
     3a0:	26 e0       	ldi	r18, 0x06	; 6
     3a2:	fc 01       	movw	r30, r24
     3a4:	25 87       	std	Z+13, r18	; 0x0d
		}
	}
}

static void poll_founded_sensor(void){
	device_state state = ds18b20_get_temperature(&_sensors[_recieved_cmd_id.sensor_id]);
     3a6:	0e 94 90 05 	call	0xb20	; 0xb20 <ds18b20_get_temperature>
	if(state == DEVICE_OK)
     3aa:	81 30       	cpi	r24, 0x01	; 1
     3ac:	71 f5       	brne	.+92     	; 0x40a <__LOCK_REGION_LENGTH__+0xa>
	{
		refresh_sensor_data(&_sensors[_recieved_cmd_id.sensor_id],&_rows[_recieved_cmd_id.sensor_id]);
     3ae:	80 91 75 02 	lds	r24, 0x0275	; 0x800275 <_recieved_cmd_id+0x1>
     3b2:	90 e0       	ldi	r25, 0x00	; 0
     3b4:	9c 01       	movw	r18, r24
     3b6:	22 0f       	add	r18, r18
     3b8:	33 1f       	adc	r19, r19
     3ba:	b9 01       	movw	r22, r18
     3bc:	68 0f       	add	r22, r24
     3be:	79 1f       	adc	r23, r25
     3c0:	66 0f       	add	r22, r22
     3c2:	77 1f       	adc	r23, r23
     3c4:	66 0f       	add	r22, r22
     3c6:	77 1f       	adc	r23, r23
     3c8:	66 58       	subi	r22, 0x86	; 134
     3ca:	7d 4f       	sbci	r23, 0xFD	; 253
     3cc:	c9 01       	movw	r24, r18
     3ce:	88 0f       	add	r24, r24
     3d0:	99 1f       	adc	r25, r25
     3d2:	88 0f       	add	r24, r24
     3d4:	99 1f       	adc	r25, r25
     3d6:	88 0f       	add	r24, r24
     3d8:	99 1f       	adc	r25, r25
     3da:	82 1b       	sub	r24, r18
     3dc:	93 0b       	sbc	r25, r19
     3de:	8e 50       	subi	r24, 0x0E	; 14
     3e0:	9d 4f       	sbci	r25, 0xFD	; 253
     3e2:	0e 94 3f 01 	call	0x27e	; 0x27e <refresh_sensor_data>
     3e6:	08 95       	ret
	if(state == DEVICE_OK)
	{
		_sensors[_recieved_cmd_id.sensor_id].status = DEVICE_FOUND;
		poll_founded_sensor();
		}else{
		_sensors[_recieved_cmd_id.sensor_id].status = DEVICE_MISSED;
     3e8:	80 91 75 02 	lds	r24, 0x0275	; 0x800275 <_recieved_cmd_id+0x1>
     3ec:	90 e0       	ldi	r25, 0x00	; 0
     3ee:	88 0f       	add	r24, r24
     3f0:	99 1f       	adc	r25, r25
     3f2:	fc 01       	movw	r30, r24
     3f4:	ee 0f       	add	r30, r30
     3f6:	ff 1f       	adc	r31, r31
     3f8:	ee 0f       	add	r30, r30
     3fa:	ff 1f       	adc	r31, r31
     3fc:	ee 0f       	add	r30, r30
     3fe:	ff 1f       	adc	r31, r31
     400:	e8 1b       	sub	r30, r24
     402:	f9 0b       	sbc	r31, r25
     404:	ee 50       	subi	r30, 0x0E	; 14
     406:	fd 4f       	sbci	r31, 0xFD	; 253
     408:	15 86       	std	Z+13, r1	; 0x0d
     40a:	08 95       	ret

0000040c <wait_for_command>:
static void ignored(void){
	
}

static void wait_for_command(void){
	if(usart_available_bytes(display_usart)>=sizeof(_recieved_cmd_id)){
     40c:	80 91 78 02 	lds	r24, 0x0278	; 0x800278 <display_usart>
     410:	90 91 79 02 	lds	r25, 0x0279	; 0x800279 <display_usart+0x1>
     414:	0e 94 d8 08 	call	0x11b0	; 0x11b0 <usart_available_bytes>
     418:	02 97       	sbiw	r24, 0x02	; 2
     41a:	70 f0       	brcs	.+28     	; 0x438 <wait_for_command+0x2c>
		usart_read(display_usart, &_recieved_cmd_id, sizeof(_recieved_cmd_id));
     41c:	42 e0       	ldi	r20, 0x02	; 2
     41e:	50 e0       	ldi	r21, 0x00	; 0
     420:	64 e7       	ldi	r22, 0x74	; 116
     422:	72 e0       	ldi	r23, 0x02	; 2
     424:	80 91 78 02 	lds	r24, 0x0278	; 0x800278 <display_usart>
     428:	90 91 79 02 	lds	r25, 0x0279	; 0x800279 <display_usart+0x1>
     42c:	0e 94 e3 08 	call	0x11c6	; 0x11c6 <usart_read>
		events_put((event_t)_recieved_cmd_id.cmd);
     430:	80 91 74 02 	lds	r24, 0x0274	; 0x800274 <_recieved_cmd_id>
     434:	0e 94 f9 00 	call	0x1f2	; 0x1f2 <events_put>
     438:	08 95       	ret

0000043a <hw_init>:
};



void hw_init(hw_device_t* device){
	_device_ptr = device;
     43a:	90 93 7f 03 	sts	0x037F, r25	; 0x80037f <_device_ptr+0x1>
     43e:	80 93 7e 03 	sts	0x037E, r24	; 0x80037e <_device_ptr>
	display_usart = usart_create(1,_device_ptr->display_baud);
     442:	fc 01       	movw	r30, r24
     444:	41 81       	ldd	r20, Z+1	; 0x01
     446:	52 81       	ldd	r21, Z+2	; 0x02
     448:	63 81       	ldd	r22, Z+3	; 0x03
     44a:	74 81       	ldd	r23, Z+4	; 0x04
     44c:	81 e0       	ldi	r24, 0x01	; 1
     44e:	0e 94 13 08 	call	0x1026	; 0x1026 <usart_create>
     452:	90 93 79 02 	sts	0x0279, r25	; 0x800279 <display_usart+0x1>
     456:	80 93 78 02 	sts	0x0278, r24	; 0x800278 <display_usart>
	pc_usart = usart_create(0,_device_ptr->modbus_baud);
     45a:	e0 91 7e 03 	lds	r30, 0x037E	; 0x80037e <_device_ptr>
     45e:	f0 91 7f 03 	lds	r31, 0x037F	; 0x80037f <_device_ptr+0x1>
     462:	45 81       	ldd	r20, Z+5	; 0x05
     464:	56 81       	ldd	r21, Z+6	; 0x06
     466:	67 81       	ldd	r22, Z+7	; 0x07
     468:	70 85       	ldd	r23, Z+8	; 0x08
     46a:	80 e0       	ldi	r24, 0x00	; 0
     46c:	0e 94 13 08 	call	0x1026	; 0x1026 <usart_create>
     470:	90 93 77 02 	sts	0x0277, r25	; 0x800277 <pc_usart+0x1>
     474:	80 93 76 02 	sts	0x0276, r24	; 0x800276 <pc_usart>
	nextion_display_init(&display_usart);
     478:	88 e7       	ldi	r24, 0x78	; 120
     47a:	92 e0       	ldi	r25, 0x02	; 2
     47c:	0e 94 30 06 	call	0xc60	; 0xc60 <nextion_display_init>
	pc_connection_init(&pc_usart);
     480:	86 e7       	ldi	r24, 0x76	; 118
     482:	92 e0       	ldi	r25, 0x02	; 2
     484:	0e 94 11 03 	call	0x622	; 0x622 <pc_connection_init>
	events_init(16);
     488:	80 e1       	ldi	r24, 0x10	; 16
     48a:	90 e0       	ldi	r25, 0x00	; 0
     48c:	0e 94 f2 00 	call	0x1e4	; 0x1e4 <events_init>
	}
}


static void init_display_rows(void){
	nextion_display_create_row(&_rows[0], PSTR("n0.val="),PSTR("n1.val="),PSTR("p0.pic="));
     490:	22 e6       	ldi	r18, 0x62	; 98
     492:	31 e0       	ldi	r19, 0x01	; 1
     494:	4a e5       	ldi	r20, 0x5A	; 90
     496:	51 e0       	ldi	r21, 0x01	; 1
     498:	62 e5       	ldi	r22, 0x52	; 82
     49a:	71 e0       	ldi	r23, 0x01	; 1
     49c:	8a e7       	ldi	r24, 0x7A	; 122
     49e:	92 e0       	ldi	r25, 0x02	; 2
     4a0:	0e 94 3a 06 	call	0xc74	; 0xc74 <nextion_display_create_row>
	nextion_display_create_row(&_rows[1], PSTR("n2.val="),PSTR("n3.val="),PSTR("p1.pic="));
     4a4:	2a e4       	ldi	r18, 0x4A	; 74
     4a6:	31 e0       	ldi	r19, 0x01	; 1
     4a8:	42 e4       	ldi	r20, 0x42	; 66
     4aa:	51 e0       	ldi	r21, 0x01	; 1
     4ac:	6a e3       	ldi	r22, 0x3A	; 58
     4ae:	71 e0       	ldi	r23, 0x01	; 1
     4b0:	86 e8       	ldi	r24, 0x86	; 134
     4b2:	92 e0       	ldi	r25, 0x02	; 2
     4b4:	0e 94 3a 06 	call	0xc74	; 0xc74 <nextion_display_create_row>
	nextion_display_create_row(&_rows[2], PSTR("n4.val="),PSTR("n5.val="),PSTR("p2.pic="));
     4b8:	22 e3       	ldi	r18, 0x32	; 50
     4ba:	31 e0       	ldi	r19, 0x01	; 1
     4bc:	4a e2       	ldi	r20, 0x2A	; 42
     4be:	51 e0       	ldi	r21, 0x01	; 1
     4c0:	62 e2       	ldi	r22, 0x22	; 34
     4c2:	71 e0       	ldi	r23, 0x01	; 1
     4c4:	82 e9       	ldi	r24, 0x92	; 146
     4c6:	92 e0       	ldi	r25, 0x02	; 2
     4c8:	0e 94 3a 06 	call	0xc74	; 0xc74 <nextion_display_create_row>
	nextion_display_create_row(&_rows[3], PSTR("n6.val="),PSTR("n7.val="),PSTR("p3.pic="));
     4cc:	2a e1       	ldi	r18, 0x1A	; 26
     4ce:	31 e0       	ldi	r19, 0x01	; 1
     4d0:	42 e1       	ldi	r20, 0x12	; 18
     4d2:	51 e0       	ldi	r21, 0x01	; 1
     4d4:	6a e0       	ldi	r22, 0x0A	; 10
     4d6:	71 e0       	ldi	r23, 0x01	; 1
     4d8:	8e e9       	ldi	r24, 0x9E	; 158
     4da:	92 e0       	ldi	r25, 0x02	; 2
     4dc:	0e 94 3a 06 	call	0xc74	; 0xc74 <nextion_display_create_row>
	nextion_display_create_row(&_rows[4], PSTR("n8.val="),PSTR("n9.val="),PSTR("p4.pic="));
     4e0:	22 e0       	ldi	r18, 0x02	; 2
     4e2:	31 e0       	ldi	r19, 0x01	; 1
     4e4:	4a ef       	ldi	r20, 0xFA	; 250
     4e6:	50 e0       	ldi	r21, 0x00	; 0
     4e8:	62 ef       	ldi	r22, 0xF2	; 242
     4ea:	70 e0       	ldi	r23, 0x00	; 0
     4ec:	8a ea       	ldi	r24, 0xAA	; 170
     4ee:	92 e0       	ldi	r25, 0x02	; 2
     4f0:	0e 94 3a 06 	call	0xc74	; 0xc74 <nextion_display_create_row>
	nextion_display_create_row(&_rows[5], PSTR("n10.val="),PSTR("n11.val="),PSTR("p5.pic="));
     4f4:	2a ee       	ldi	r18, 0xEA	; 234
     4f6:	30 e0       	ldi	r19, 0x00	; 0
     4f8:	41 ee       	ldi	r20, 0xE1	; 225
     4fa:	50 e0       	ldi	r21, 0x00	; 0
     4fc:	68 ed       	ldi	r22, 0xD8	; 216
     4fe:	70 e0       	ldi	r23, 0x00	; 0
     500:	86 eb       	ldi	r24, 0xB6	; 182
     502:	92 e0       	ldi	r25, 0x02	; 2
     504:	0e 94 3a 06 	call	0xc74	; 0xc74 <nextion_display_create_row>
	nextion_display_create_row(&_rows[6], PSTR("n12.val="),PSTR("n13.val="),PSTR("p6.pic="));
     508:	20 ed       	ldi	r18, 0xD0	; 208
     50a:	30 e0       	ldi	r19, 0x00	; 0
     50c:	47 ec       	ldi	r20, 0xC7	; 199
     50e:	50 e0       	ldi	r21, 0x00	; 0
     510:	6e eb       	ldi	r22, 0xBE	; 190
     512:	70 e0       	ldi	r23, 0x00	; 0
     514:	82 ec       	ldi	r24, 0xC2	; 194
     516:	92 e0       	ldi	r25, 0x02	; 2
     518:	0e 94 3a 06 	call	0xc74	; 0xc74 <nextion_display_create_row>
	nextion_display_create_row(&_rows[7], PSTR("n14.val="),PSTR("n15.val="),PSTR("p7.pic="));
     51c:	26 eb       	ldi	r18, 0xB6	; 182
     51e:	30 e0       	ldi	r19, 0x00	; 0
     520:	4d ea       	ldi	r20, 0xAD	; 173
     522:	50 e0       	ldi	r21, 0x00	; 0
     524:	64 ea       	ldi	r22, 0xA4	; 164
     526:	70 e0       	ldi	r23, 0x00	; 0
     528:	8e ec       	ldi	r24, 0xCE	; 206
     52a:	92 e0       	ldi	r25, 0x02	; 2
     52c:	0e 94 3a 06 	call	0xc74	; 0xc74 <nextion_display_create_row>
	nextion_display_create_row(&_rows[8], PSTR("n16.val="),PSTR("n17.val="),PSTR("p8.pic="));
     530:	2c e9       	ldi	r18, 0x9C	; 156
     532:	30 e0       	ldi	r19, 0x00	; 0
     534:	43 e9       	ldi	r20, 0x93	; 147
     536:	50 e0       	ldi	r21, 0x00	; 0
     538:	6a e8       	ldi	r22, 0x8A	; 138
     53a:	70 e0       	ldi	r23, 0x00	; 0
     53c:	8a ed       	ldi	r24, 0xDA	; 218
     53e:	92 e0       	ldi	r25, 0x02	; 2
     540:	0e 94 3a 06 	call	0xc74	; 0xc74 <nextion_display_create_row>
	nextion_display_create_row(&_rows[9], PSTR("n18.val="),PSTR("n19.val="),PSTR("p9.pic="));
     544:	22 e8       	ldi	r18, 0x82	; 130
     546:	30 e0       	ldi	r19, 0x00	; 0
     548:	49 e7       	ldi	r20, 0x79	; 121
     54a:	50 e0       	ldi	r21, 0x00	; 0
     54c:	60 e7       	ldi	r22, 0x70	; 112
     54e:	70 e0       	ldi	r23, 0x00	; 0
     550:	86 ee       	ldi	r24, 0xE6	; 230
     552:	92 e0       	ldi	r25, 0x02	; 2
     554:	0e 94 3a 06 	call	0xc74	; 0xc74 <nextion_display_create_row>
	pc_usart = usart_create(0,_device_ptr->modbus_baud);
	nextion_display_init(&display_usart);
	pc_connection_init(&pc_usart);
	events_init(16);
	init_display_rows();
	timer_init();
     558:	0e 94 25 03 	call	0x64a	; 0x64a <timer_init>
	sensor_poll_timer = timer_create();
     55c:	0e 94 53 03 	call	0x6a6	; 0x6a6 <timer_create>
     560:	80 93 81 03 	sts	0x0381, r24	; 0x800381 <sensor_poll_timer>
	send_message_timer = timer_create();
     564:	0e 94 53 03 	call	0x6a6	; 0x6a6 <timer_create>
     568:	80 93 80 03 	sts	0x0380, r24	; 0x800380 <send_message_timer>
	DDRC = 0b00001111;
     56c:	8f e0       	ldi	r24, 0x0F	; 15
     56e:	84 bb       	out	0x14, r24	; 20
     570:	08 95       	ret

00000572 <hw_run>:
}

void hw_run(void){
     572:	cf 93       	push	r28
     574:	df 93       	push	r29
     576:	cd b7       	in	r28, 0x3d	; 61
     578:	de b7       	in	r29, 0x3e	; 62
     57a:	27 97       	sbiw	r28, 0x07	; 7
     57c:	0f b6       	in	r0, 0x3f	; 63
     57e:	f8 94       	cli
     580:	de bf       	out	0x3e, r29	; 62
     582:	0f be       	out	0x3f, r0	; 63
     584:	cd bf       	out	0x3d, r28	; 61
	timer_stop(sensor_poll_timer);
     586:	80 91 81 03 	lds	r24, 0x0381	; 0x800381 <sensor_poll_timer>
     58a:	0e 94 8f 03 	call	0x71e	; 0x71e <timer_stop>
	timer_restart(send_message_timer, 1000);
     58e:	68 ee       	ldi	r22, 0xE8	; 232
     590:	73 e0       	ldi	r23, 0x03	; 3
     592:	80 91 80 03 	lds	r24, 0x0380	; 0x800380 <send_message_timer>
     596:	0e 94 7e 03 	call	0x6fc	; 0x6fc <timer_restart>
	uint8_t greatings[7] = "Hello!";
     59a:	87 e0       	ldi	r24, 0x07	; 7
     59c:	ec e2       	ldi	r30, 0x2C	; 44
     59e:	f2 e0       	ldi	r31, 0x02	; 2
     5a0:	de 01       	movw	r26, r28
     5a2:	11 96       	adiw	r26, 0x01	; 1
     5a4:	01 90       	ld	r0, Z+
     5a6:	0d 92       	st	X+, r0
     5a8:	8a 95       	dec	r24
     5aa:	e1 f7       	brne	.-8      	; 0x5a4 <hw_run+0x32>
	while(1){
		
		_event = events_get();
     5ac:	0e 94 23 01 	call	0x246	; 0x246 <events_get>
     5b0:	80 93 82 03 	sts	0x0382, r24	; 0x800382 <_event>
		transition_table[_state][_event]();
     5b4:	20 91 83 03 	lds	r18, 0x0383	; 0x800383 <_state>
     5b8:	30 e0       	ldi	r19, 0x00	; 0
     5ba:	f9 01       	movw	r30, r18
     5bc:	ee 0f       	add	r30, r30
     5be:	ff 1f       	adc	r31, r31
     5c0:	ee 0f       	add	r30, r30
     5c2:	ff 1f       	adc	r31, r31
     5c4:	ee 0f       	add	r30, r30
     5c6:	ff 1f       	adc	r31, r31
     5c8:	e2 0f       	add	r30, r18
     5ca:	f3 1f       	adc	r31, r19
     5cc:	e8 0f       	add	r30, r24
     5ce:	f1 1d       	adc	r31, r1
     5d0:	ee 0f       	add	r30, r30
     5d2:	ff 1f       	adc	r31, r31
     5d4:	ed 5c       	subi	r30, 0xCD	; 205
     5d6:	fd 4f       	sbci	r31, 0xFD	; 253
     5d8:	01 90       	ld	r0, Z+
     5da:	f0 81       	ld	r31, Z
     5dc:	e0 2d       	mov	r30, r0
     5de:	09 95       	icall
		if(timer_poll(sensor_poll_timer)){
     5e0:	80 91 81 03 	lds	r24, 0x0381	; 0x800381 <sensor_poll_timer>
     5e4:	0e 94 a0 03 	call	0x740	; 0x740 <timer_poll>
     5e8:	88 23       	and	r24, r24
     5ea:	49 f0       	breq	.+18     	; 0x5fe <hw_run+0x8c>
			events_put(EV_POLL_SENSOR);
     5ec:	88 e0       	ldi	r24, 0x08	; 8
     5ee:	0e 94 f9 00 	call	0x1f2	; 0x1f2 <events_put>
			timer_restart(sensor_poll_timer, SENSOR_POLL_TIMEOUT);
     5f2:	64 ef       	ldi	r22, 0xF4	; 244
     5f4:	71 e0       	ldi	r23, 0x01	; 1
     5f6:	80 91 81 03 	lds	r24, 0x0381	; 0x800381 <sensor_poll_timer>
     5fa:	0e 94 7e 03 	call	0x6fc	; 0x6fc <timer_restart>
		}
		
		if(timer_poll(send_message_timer)){
     5fe:	80 91 80 03 	lds	r24, 0x0380	; 0x800380 <send_message_timer>
     602:	0e 94 a0 03 	call	0x740	; 0x740 <timer_poll>
     606:	88 23       	and	r24, r24
     608:	89 f2       	breq	.-94     	; 0x5ac <hw_run+0x3a>
			send_message(greatings, 7);
     60a:	67 e0       	ldi	r22, 0x07	; 7
     60c:	ce 01       	movw	r24, r28
     60e:	01 96       	adiw	r24, 0x01	; 1
     610:	0e 94 1b 03 	call	0x636	; 0x636 <send_message>
			timer_restart(send_message_timer, 1000);
     614:	68 ee       	ldi	r22, 0xE8	; 232
     616:	73 e0       	ldi	r23, 0x03	; 3
     618:	80 91 80 03 	lds	r24, 0x0380	; 0x800380 <send_message_timer>
     61c:	0e 94 7e 03 	call	0x6fc	; 0x6fc <timer_restart>
     620:	c5 cf       	rjmp	.-118    	; 0x5ac <hw_run+0x3a>

00000622 <pc_connection_init>:

static usart_t _usart = NULL;

void pc_connection_init(usart_t *usart)
{
	_usart = *usart;
     622:	fc 01       	movw	r30, r24
     624:	80 81       	ld	r24, Z
     626:	91 81       	ldd	r25, Z+1	; 0x01
     628:	90 93 85 03 	sts	0x0385, r25	; 0x800385 <_usart+0x1>
     62c:	80 93 84 03 	sts	0x0384, r24	; 0x800384 <_usart>
	usart_reset(_usart);
     630:	0e 94 a0 08 	call	0x1140	; 0x1140 <usart_reset>
     634:	08 95       	ret

00000636 <send_message>:
}

void send_message(uint8_t *message, uint8_t length){
	usart_write(_usart, message, length);
     636:	46 2f       	mov	r20, r22
     638:	50 e0       	ldi	r21, 0x00	; 0
     63a:	bc 01       	movw	r22, r24
     63c:	80 91 84 03 	lds	r24, 0x0384	; 0x800384 <_usart>
     640:	90 91 85 03 	lds	r25, 0x0385	; 0x800385 <_usart+0x1>
     644:	0e 94 b3 08 	call	0x1166	; 0x1166 <usart_write>
     648:	08 95       	ret

0000064a <timer_init>:

static const int TIMEOUT = 0;
static const int DISABLED = -1;

void timer_init()
{
     64a:	cf 93       	push	r28
     64c:	df 93       	push	r29
	ATOMIC_BLOCK(ATOMIC_RESTORESTATE)
     64e:	df b7       	in	r29, 0x3f	; 63
    return 1;
}

static __inline__ uint8_t __iCliRetVal(void)
{
    cli();
     650:	f8 94       	cli
	{
		assert(!initilized,1);
     652:	80 91 92 03 	lds	r24, 0x0392	; 0x800392 <initilized>
     656:	c1 e0       	ldi	r28, 0x01	; 1
     658:	61 e0       	ldi	r22, 0x01	; 1
     65a:	8c 27       	eor	r24, r28
     65c:	0e 94 d4 00 	call	0x1a8	; 0x1a8 <assert>

		current_timer = 0;
     660:	10 92 94 03 	sts	0x0394, r1	; 0x800394 <current_timer+0x1>
     664:	10 92 93 03 	sts	0x0393, r1	; 0x800393 <current_timer>
		for (size_t i = 0; i < MAX_TIMERS; i++)
		timers[i] = DISABLED;
     668:	e6 e8       	ldi	r30, 0x86	; 134
     66a:	f3 e0       	ldi	r31, 0x03	; 3
     66c:	8f ef       	ldi	r24, 0xFF	; 255
     66e:	9f ef       	ldi	r25, 0xFF	; 255
     670:	dc 01       	movw	r26, r24
     672:	80 83       	st	Z, r24
     674:	91 83       	std	Z+1, r25	; 0x01
     676:	a2 83       	std	Z+2, r26	; 0x02
     678:	b3 83       	std	Z+3, r27	; 0x03
     67a:	84 83       	std	Z+4, r24	; 0x04
     67c:	95 83       	std	Z+5, r25	; 0x05
     67e:	a6 83       	std	Z+6, r26	; 0x06
     680:	b7 83       	std	Z+7, r27	; 0x07
     682:	80 87       	std	Z+8, r24	; 0x08
     684:	91 87       	std	Z+9, r25	; 0x09
     686:	a2 87       	std	Z+10, r26	; 0x0a
     688:	b3 87       	std	Z+11, r27	; 0x0b

		initilized = true;
     68a:	c0 93 92 03 	sts	0x0392, r28	; 0x800392 <initilized>

		// настроить таймер на 1 мс тики
		// установить делитель на 64
		//GTCCR |= 1<<PSRSYNC; // сброс предделителя
		TCNT0 = INIT;
     68e:	86 e0       	ldi	r24, 0x06	; 6
     690:	82 bf       	out	0x32, r24	; 50
		TCCR0 |=1<<CS00|1<<CS01|0<<CS02;
     692:	83 b7       	in	r24, 0x33	; 51
     694:	83 60       	ori	r24, 0x03	; 3
     696:	83 bf       	out	0x33, r24	; 51
		TIMSK |= 1<<TOIE0; // разрешение прерывания
     698:	89 b7       	in	r24, 0x39	; 57
     69a:	82 60       	ori	r24, 0x02	; 2
     69c:	89 bf       	out	0x39, r24	; 57
    (void)__s;
}

static __inline__ void __iRestore(const  uint8_t *__s)
{
    SREG = *__s;
     69e:	df bf       	out	0x3f, r29	; 63
	}
}
     6a0:	df 91       	pop	r29
     6a2:	cf 91       	pop	r28
     6a4:	08 95       	ret

000006a6 <timer_create>:

timer_t timer_create()
{
     6a6:	cf 93       	push	r28
	timer_t result;
	
	ATOMIC_BLOCK(ATOMIC_RESTORESTATE)
     6a8:	cf b7       	in	r28, 0x3f	; 63
    return 1;
}

static __inline__ uint8_t __iCliRetVal(void)
{
    cli();
     6aa:	f8 94       	cli
	{
		assert(current_timer < MAX_TIMERS,2);
     6ac:	81 e0       	ldi	r24, 0x01	; 1
     6ae:	20 91 93 03 	lds	r18, 0x0393	; 0x800393 <current_timer>
     6b2:	30 91 94 03 	lds	r19, 0x0394	; 0x800394 <current_timer+0x1>
     6b6:	23 30       	cpi	r18, 0x03	; 3
     6b8:	31 05       	cpc	r19, r1
     6ba:	0c f0       	brlt	.+2      	; 0x6be <timer_create+0x18>
     6bc:	80 e0       	ldi	r24, 0x00	; 0
     6be:	62 e0       	ldi	r22, 0x02	; 2
     6c0:	0e 94 d4 00 	call	0x1a8	; 0x1a8 <assert>
		
		timers[current_timer] = DISABLED;
     6c4:	80 91 93 03 	lds	r24, 0x0393	; 0x800393 <current_timer>
     6c8:	90 91 94 03 	lds	r25, 0x0394	; 0x800394 <current_timer+0x1>
     6cc:	fc 01       	movw	r30, r24
     6ce:	ee 0f       	add	r30, r30
     6d0:	ff 1f       	adc	r31, r31
     6d2:	ee 0f       	add	r30, r30
     6d4:	ff 1f       	adc	r31, r31
     6d6:	ea 57       	subi	r30, 0x7A	; 122
     6d8:	fc 4f       	sbci	r31, 0xFC	; 252
     6da:	4f ef       	ldi	r20, 0xFF	; 255
     6dc:	5f ef       	ldi	r21, 0xFF	; 255
     6de:	ba 01       	movw	r22, r20
     6e0:	40 83       	st	Z, r20
     6e2:	51 83       	std	Z+1, r21	; 0x01
     6e4:	62 83       	std	Z+2, r22	; 0x02
     6e6:	73 83       	std	Z+3, r23	; 0x03

		result = current_timer++;
     6e8:	9c 01       	movw	r18, r24
     6ea:	2f 5f       	subi	r18, 0xFF	; 255
     6ec:	3f 4f       	sbci	r19, 0xFF	; 255
     6ee:	30 93 94 03 	sts	0x0394, r19	; 0x800394 <current_timer+0x1>
     6f2:	20 93 93 03 	sts	0x0393, r18	; 0x800393 <current_timer>
    (void)__s;
}

static __inline__ void __iRestore(const  uint8_t *__s)
{
    SREG = *__s;
     6f6:	cf bf       	out	0x3f, r28	; 63
	}
	
	return result;
}
     6f8:	cf 91       	pop	r28
     6fa:	08 95       	ret

000006fc <timer_restart>:

void timer_restart(timer_t timer, uint16_t ms)
{
	ATOMIC_BLOCK(ATOMIC_RESTORESTATE)
     6fc:	9f b7       	in	r25, 0x3f	; 63
    return 1;
}

static __inline__ uint8_t __iCliRetVal(void)
{
    cli();
     6fe:	f8 94       	cli
	{
		timers[timer] = ms;
     700:	ab 01       	movw	r20, r22
     702:	60 e0       	ldi	r22, 0x00	; 0
     704:	70 e0       	ldi	r23, 0x00	; 0
     706:	24 e0       	ldi	r18, 0x04	; 4
     708:	82 02       	muls	r24, r18
     70a:	f0 01       	movw	r30, r0
     70c:	11 24       	eor	r1, r1
     70e:	ea 57       	subi	r30, 0x7A	; 122
     710:	fc 4f       	sbci	r31, 0xFC	; 252
     712:	40 83       	st	Z, r20
     714:	51 83       	std	Z+1, r21	; 0x01
     716:	62 83       	std	Z+2, r22	; 0x02
     718:	73 83       	std	Z+3, r23	; 0x03
    (void)__s;
}

static __inline__ void __iRestore(const  uint8_t *__s)
{
    SREG = *__s;
     71a:	9f bf       	out	0x3f, r25	; 63
    __asm__ volatile ("" ::: "memory");
     71c:	08 95       	ret

0000071e <timer_stop>:
	}
}

void timer_stop(timer_t timer)
{
	ATOMIC_BLOCK(ATOMIC_RESTORESTATE)
     71e:	9f b7       	in	r25, 0x3f	; 63
    return 1;
}

static __inline__ uint8_t __iCliRetVal(void)
{
    cli();
     720:	f8 94       	cli
	{
		timers[timer] = DISABLED;
     722:	24 e0       	ldi	r18, 0x04	; 4
     724:	82 02       	muls	r24, r18
     726:	f0 01       	movw	r30, r0
     728:	11 24       	eor	r1, r1
     72a:	ea 57       	subi	r30, 0x7A	; 122
     72c:	fc 4f       	sbci	r31, 0xFC	; 252
     72e:	4f ef       	ldi	r20, 0xFF	; 255
     730:	5f ef       	ldi	r21, 0xFF	; 255
     732:	ba 01       	movw	r22, r20
     734:	40 83       	st	Z, r20
     736:	51 83       	std	Z+1, r21	; 0x01
     738:	62 83       	std	Z+2, r22	; 0x02
     73a:	73 83       	std	Z+3, r23	; 0x03
    (void)__s;
}

static __inline__ void __iRestore(const  uint8_t *__s)
{
    SREG = *__s;
     73c:	9f bf       	out	0x3f, r25	; 63
    __asm__ volatile ("" ::: "memory");
     73e:	08 95       	ret

00000740 <timer_poll>:
}

bool timer_poll(timer_t timer)
{
	bool result = false;
	ATOMIC_BLOCK(ATOMIC_RESTORESTATE)
     740:	2f b7       	in	r18, 0x3f	; 63
    return 1;
}

static __inline__ uint8_t __iCliRetVal(void)
{
    cli();
     742:	f8 94       	cli
	{
		if (timers[timer] == TIMEOUT) {
     744:	e8 2f       	mov	r30, r24
     746:	88 0f       	add	r24, r24
     748:	ff 0b       	sbc	r31, r31
     74a:	df 01       	movw	r26, r30
     74c:	aa 0f       	add	r26, r26
     74e:	bb 1f       	adc	r27, r27
     750:	aa 0f       	add	r26, r26
     752:	bb 1f       	adc	r27, r27
     754:	aa 57       	subi	r26, 0x7A	; 122
     756:	bc 4f       	sbci	r27, 0xFC	; 252
     758:	8d 91       	ld	r24, X+
     75a:	9d 91       	ld	r25, X+
     75c:	0d 90       	ld	r0, X+
     75e:	bc 91       	ld	r27, X
     760:	a0 2d       	mov	r26, r0
     762:	89 2b       	or	r24, r25
     764:	8a 2b       	or	r24, r26
     766:	8b 2b       	or	r24, r27
     768:	79 f4       	brne	.+30     	; 0x788 <timer_poll+0x48>
			timers[timer] = DISABLED;
     76a:	ee 0f       	add	r30, r30
     76c:	ff 1f       	adc	r31, r31
     76e:	ee 0f       	add	r30, r30
     770:	ff 1f       	adc	r31, r31
     772:	ea 57       	subi	r30, 0x7A	; 122
     774:	fc 4f       	sbci	r31, 0xFC	; 252
     776:	8f ef       	ldi	r24, 0xFF	; 255
     778:	9f ef       	ldi	r25, 0xFF	; 255
     77a:	dc 01       	movw	r26, r24
     77c:	80 83       	st	Z, r24
     77e:	91 83       	std	Z+1, r25	; 0x01
     780:	a2 83       	std	Z+2, r26	; 0x02
     782:	b3 83       	std	Z+3, r27	; 0x03
			result = true;
     784:	81 e0       	ldi	r24, 0x01	; 1
     786:	01 c0       	rjmp	.+2      	; 0x78a <timer_poll+0x4a>
	}
}

bool timer_poll(timer_t timer)
{
	bool result = false;
     788:	80 e0       	ldi	r24, 0x00	; 0
    (void)__s;
}

static __inline__ void __iRestore(const  uint8_t *__s)
{
    SREG = *__s;
     78a:	2f bf       	out	0x3f, r18	; 63
			timers[timer] = DISABLED;
			result = true;
		}
	}
	return result;
}
     78c:	08 95       	ret

0000078e <__vector_17>:

ISR(TIMER0_OVF_vect){
     78e:	1f 92       	push	r1
     790:	0f 92       	push	r0
     792:	0f b6       	in	r0, 0x3f	; 63
     794:	0f 92       	push	r0
     796:	11 24       	eor	r1, r1
     798:	2f 93       	push	r18
     79a:	3f 93       	push	r19
     79c:	4f 93       	push	r20
     79e:	5f 93       	push	r21
     7a0:	6f 93       	push	r22
     7a2:	7f 93       	push	r23
     7a4:	8f 93       	push	r24
     7a6:	9f 93       	push	r25
     7a8:	ef 93       	push	r30
     7aa:	ff 93       	push	r31
	TCNT0 = INIT;
     7ac:	86 e0       	ldi	r24, 0x06	; 6
     7ae:	82 bf       	out	0x32, r24	; 50
	for (size_t i = 0; i < current_timer; i++)
     7b0:	20 91 93 03 	lds	r18, 0x0393	; 0x800393 <current_timer>
     7b4:	30 91 94 03 	lds	r19, 0x0394	; 0x800394 <current_timer+0x1>
     7b8:	21 15       	cp	r18, r1
     7ba:	31 05       	cpc	r19, r1
     7bc:	49 f1       	breq	.+82     	; 0x810 <__vector_17+0x82>
     7be:	80 e0       	ldi	r24, 0x00	; 0
     7c0:	90 e0       	ldi	r25, 0x00	; 0
		if(timers[i] > 0) timers[i]--;
     7c2:	fc 01       	movw	r30, r24
     7c4:	ee 0f       	add	r30, r30
     7c6:	ff 1f       	adc	r31, r31
     7c8:	ee 0f       	add	r30, r30
     7ca:	ff 1f       	adc	r31, r31
     7cc:	ea 57       	subi	r30, 0x7A	; 122
     7ce:	fc 4f       	sbci	r31, 0xFC	; 252
     7d0:	40 81       	ld	r20, Z
     7d2:	51 81       	ldd	r21, Z+1	; 0x01
     7d4:	62 81       	ldd	r22, Z+2	; 0x02
     7d6:	73 81       	ldd	r23, Z+3	; 0x03
     7d8:	14 16       	cp	r1, r20
     7da:	15 06       	cpc	r1, r21
     7dc:	16 06       	cpc	r1, r22
     7de:	17 06       	cpc	r1, r23
     7e0:	9c f4       	brge	.+38     	; 0x808 <__vector_17+0x7a>
     7e2:	fc 01       	movw	r30, r24
     7e4:	ee 0f       	add	r30, r30
     7e6:	ff 1f       	adc	r31, r31
     7e8:	ee 0f       	add	r30, r30
     7ea:	ff 1f       	adc	r31, r31
     7ec:	ea 57       	subi	r30, 0x7A	; 122
     7ee:	fc 4f       	sbci	r31, 0xFC	; 252
     7f0:	40 81       	ld	r20, Z
     7f2:	51 81       	ldd	r21, Z+1	; 0x01
     7f4:	62 81       	ldd	r22, Z+2	; 0x02
     7f6:	73 81       	ldd	r23, Z+3	; 0x03
     7f8:	41 50       	subi	r20, 0x01	; 1
     7fa:	51 09       	sbc	r21, r1
     7fc:	61 09       	sbc	r22, r1
     7fe:	71 09       	sbc	r23, r1
     800:	40 83       	st	Z, r20
     802:	51 83       	std	Z+1, r21	; 0x01
     804:	62 83       	std	Z+2, r22	; 0x02
     806:	73 83       	std	Z+3, r23	; 0x03
	return result;
}

ISR(TIMER0_OVF_vect){
	TCNT0 = INIT;
	for (size_t i = 0; i < current_timer; i++)
     808:	01 96       	adiw	r24, 0x01	; 1
     80a:	82 17       	cp	r24, r18
     80c:	93 07       	cpc	r25, r19
     80e:	c9 f6       	brne	.-78     	; 0x7c2 <__vector_17+0x34>
		if(timers[i] > 0) timers[i]--;
}
     810:	ff 91       	pop	r31
     812:	ef 91       	pop	r30
     814:	9f 91       	pop	r25
     816:	8f 91       	pop	r24
     818:	7f 91       	pop	r23
     81a:	6f 91       	pop	r22
     81c:	5f 91       	pop	r21
     81e:	4f 91       	pop	r20
     820:	3f 91       	pop	r19
     822:	2f 91       	pop	r18
     824:	0f 90       	pop	r0
     826:	0f be       	out	0x3f, r0	; 63
     828:	0f 90       	pop	r0
     82a:	1f 90       	pop	r1
     82c:	18 95       	reti

0000082e <buffer_create>:
{
    {0,0,MAX_BUFFER_SIZE,{0}},{0,0,MAX_BUFFER_SIZE,{0}},{0,0,MAX_BUFFER_SIZE,{0}},{0,0,MAX_BUFFER_SIZE,{0}}
};

buffer_t buffer_create(uint8_t index)
{
     82e:	cf 93       	push	r28
     830:	c8 2f       	mov	r28, r24
    assert(index<BUFFER_COUNT,1);
     832:	81 e0       	ldi	r24, 0x01	; 1
     834:	c4 30       	cpi	r28, 0x04	; 4
     836:	08 f0       	brcs	.+2      	; 0x83a <buffer_create+0xc>
     838:	80 e0       	ldi	r24, 0x00	; 0
     83a:	61 e0       	ldi	r22, 0x01	; 1
     83c:	0e 94 d4 00 	call	0x1a8	; 0x1a8 <assert>
	return &buffers[index];
     840:	26 e4       	ldi	r18, 0x46	; 70
     842:	c2 9f       	mul	r28, r18
     844:	c0 01       	movw	r24, r0
     846:	11 24       	eor	r1, r1
}
     848:	80 50       	subi	r24, 0x00	; 0
     84a:	9f 4f       	sbci	r25, 0xFF	; 255
     84c:	cf 91       	pop	r28
     84e:	08 95       	ret

00000850 <buffer_write>:

void buffer_write(buffer_t buffer, uint8_t value)
{
     850:	1f 93       	push	r17
     852:	cf 93       	push	r28
     854:	df 93       	push	r29
     856:	ec 01       	movw	r28, r24
     858:	16 2f       	mov	r17, r22
	assert(buffer->tail != (buffer->head - 1 + buffer->size) % buffer->size,2);
     85a:	6c 81       	ldd	r22, Y+4	; 0x04
     85c:	7d 81       	ldd	r23, Y+5	; 0x05
     85e:	8a 81       	ldd	r24, Y+2	; 0x02
     860:	9b 81       	ldd	r25, Y+3	; 0x03
     862:	86 0f       	add	r24, r22
     864:	97 1f       	adc	r25, r23
     866:	01 97       	sbiw	r24, 0x01	; 1
     868:	0e 94 ee 0a 	call	0x15dc	; 0x15dc <__udivmodhi4>
     86c:	ac 01       	movw	r20, r24
     86e:	81 e0       	ldi	r24, 0x01	; 1
     870:	28 81       	ld	r18, Y
     872:	39 81       	ldd	r19, Y+1	; 0x01
     874:	42 17       	cp	r20, r18
     876:	53 07       	cpc	r21, r19
     878:	09 f4       	brne	.+2      	; 0x87c <buffer_write+0x2c>
     87a:	80 e0       	ldi	r24, 0x00	; 0
     87c:	62 e0       	ldi	r22, 0x02	; 2
     87e:	0e 94 d4 00 	call	0x1a8	; 0x1a8 <assert>
			
	buffer->bytes[buffer->tail] = value;
     882:	88 81       	ld	r24, Y
     884:	99 81       	ldd	r25, Y+1	; 0x01
     886:	fe 01       	movw	r30, r28
     888:	e8 0f       	add	r30, r24
     88a:	f9 1f       	adc	r31, r25
     88c:	16 83       	std	Z+6, r17	; 0x06
    buffer->tail++;
    buffer->tail &= MAX_BUFFER_SIZE - 1;
     88e:	01 96       	adiw	r24, 0x01	; 1
     890:	8f 73       	andi	r24, 0x3F	; 63
     892:	99 27       	eor	r25, r25
     894:	99 83       	std	Y+1, r25	; 0x01
     896:	88 83       	st	Y, r24
}
     898:	df 91       	pop	r29
     89a:	cf 91       	pop	r28
     89c:	1f 91       	pop	r17
     89e:	08 95       	ret

000008a0 <buffer_count>:

	return value;
}

size_t buffer_count(buffer_t buffer)
{
     8a0:	fc 01       	movw	r30, r24
	
	if (buffer->tail >= buffer->head)
     8a2:	80 81       	ld	r24, Z
     8a4:	91 81       	ldd	r25, Z+1	; 0x01
     8a6:	42 81       	ldd	r20, Z+2	; 0x02
     8a8:	53 81       	ldd	r21, Z+3	; 0x03
     8aa:	84 17       	cp	r24, r20
     8ac:	95 07       	cpc	r25, r21
     8ae:	18 f0       	brcs	.+6      	; 0x8b6 <buffer_count+0x16>
	{
		return (buffer->tail - buffer->head);
     8b0:	84 1b       	sub	r24, r20
     8b2:	95 0b       	sbc	r25, r21
     8b4:	08 95       	ret
	}

	return (buffer->size - buffer->head) + buffer->tail;
     8b6:	24 81       	ldd	r18, Z+4	; 0x04
     8b8:	35 81       	ldd	r19, Z+5	; 0x05
     8ba:	82 0f       	add	r24, r18
     8bc:	93 1f       	adc	r25, r19
     8be:	84 1b       	sub	r24, r20
     8c0:	95 0b       	sbc	r25, r21
}
     8c2:	08 95       	ret

000008c4 <buffer_write_bytes>:
    buffer->tail++;
    buffer->tail &= MAX_BUFFER_SIZE - 1;
}

void buffer_write_bytes(buffer_t buffer, const void * data, size_t length)
{
     8c4:	ef 92       	push	r14
     8c6:	ff 92       	push	r15
     8c8:	0f 93       	push	r16
     8ca:	1f 93       	push	r17
     8cc:	cf 93       	push	r28
     8ce:	df 93       	push	r29
     8d0:	7c 01       	movw	r14, r24
     8d2:	eb 01       	movw	r28, r22
     8d4:	8a 01       	movw	r16, r20
	assert(length < buffer->size - buffer_count(buffer),3);
     8d6:	0e 94 50 04 	call	0x8a0	; 0x8a0 <buffer_count>
     8da:	f7 01       	movw	r30, r14
     8dc:	24 81       	ldd	r18, Z+4	; 0x04
     8de:	35 81       	ldd	r19, Z+5	; 0x05
     8e0:	28 1b       	sub	r18, r24
     8e2:	39 0b       	sbc	r19, r25
     8e4:	81 e0       	ldi	r24, 0x01	; 1
     8e6:	02 17       	cp	r16, r18
     8e8:	13 07       	cpc	r17, r19
     8ea:	08 f0       	brcs	.+2      	; 0x8ee <buffer_write_bytes+0x2a>
     8ec:	80 e0       	ldi	r24, 0x00	; 0
     8ee:	63 e0       	ldi	r22, 0x03	; 3
     8f0:	0e 94 d4 00 	call	0x1a8	; 0x1a8 <assert>
	uint8_t * bytes = (uint8_t *) data;
	
	for (size_t i = 0; i < length; i++, bytes++)
     8f4:	01 15       	cp	r16, r1
     8f6:	11 05       	cpc	r17, r1
     8f8:	49 f0       	breq	.+18     	; 0x90c <buffer_write_bytes+0x48>
     8fa:	0c 0f       	add	r16, r28
     8fc:	1d 1f       	adc	r17, r29
	{
		buffer_write(buffer, *bytes);
     8fe:	69 91       	ld	r22, Y+
     900:	c7 01       	movw	r24, r14
     902:	0e 94 28 04 	call	0x850	; 0x850 <buffer_write>
void buffer_write_bytes(buffer_t buffer, const void * data, size_t length)
{
	assert(length < buffer->size - buffer_count(buffer),3);
	uint8_t * bytes = (uint8_t *) data;
	
	for (size_t i = 0; i < length; i++, bytes++)
     906:	0c 17       	cp	r16, r28
     908:	1d 07       	cpc	r17, r29
     90a:	c9 f7       	brne	.-14     	; 0x8fe <buffer_write_bytes+0x3a>
	{
		buffer_write(buffer, *bytes);
	}
}
     90c:	df 91       	pop	r29
     90e:	cf 91       	pop	r28
     910:	1f 91       	pop	r17
     912:	0f 91       	pop	r16
     914:	ff 90       	pop	r15
     916:	ef 90       	pop	r14
     918:	08 95       	ret

0000091a <buffer_read>:

uint8_t buffer_read(buffer_t buffer)
{
     91a:	cf 93       	push	r28
     91c:	df 93       	push	r29
     91e:	ec 01       	movw	r28, r24
	assert(buffer_count(buffer) > 0,4);
     920:	0e 94 50 04 	call	0x8a0	; 0x8a0 <buffer_count>
     924:	21 e0       	ldi	r18, 0x01	; 1
     926:	89 2b       	or	r24, r25
     928:	09 f4       	brne	.+2      	; 0x92c <buffer_read+0x12>
     92a:	20 e0       	ldi	r18, 0x00	; 0
     92c:	64 e0       	ldi	r22, 0x04	; 4
     92e:	82 2f       	mov	r24, r18
     930:	0e 94 d4 00 	call	0x1a8	; 0x1a8 <assert>
	
	uint8_t value = buffer->bytes[buffer->head];
     934:	2a 81       	ldd	r18, Y+2	; 0x02
     936:	3b 81       	ldd	r19, Y+3	; 0x03
     938:	fe 01       	movw	r30, r28
     93a:	e2 0f       	add	r30, r18
     93c:	f3 1f       	adc	r31, r19
     93e:	86 81       	ldd	r24, Z+6	; 0x06

	buffer->head++;
    
    buffer->head &= MAX_BUFFER_SIZE - 1;
     940:	2f 5f       	subi	r18, 0xFF	; 255
     942:	3f 4f       	sbci	r19, 0xFF	; 255
     944:	2f 73       	andi	r18, 0x3F	; 63
     946:	33 27       	eor	r19, r19
     948:	3b 83       	std	Y+3, r19	; 0x03
     94a:	2a 83       	std	Y+2, r18	; 0x02

	return value;
}
     94c:	df 91       	pop	r29
     94e:	cf 91       	pop	r28
     950:	08 95       	ret

00000952 <buffer_read_bytes>:

	return (buffer->size - buffer->head) + buffer->tail;
}

void buffer_read_bytes(buffer_t buffer, void * data, uint8_t count)
{
     952:	ef 92       	push	r14
     954:	ff 92       	push	r15
     956:	0f 93       	push	r16
     958:	1f 93       	push	r17
     95a:	cf 93       	push	r28
     95c:	df 93       	push	r29
     95e:	7c 01       	movw	r14, r24
     960:	eb 01       	movw	r28, r22
     962:	14 2f       	mov	r17, r20
	uint8_t available = buffer_count(buffer);
     964:	0e 94 50 04 	call	0x8a0	; 0x8a0 <buffer_count>
     968:	08 2f       	mov	r16, r24

	assert(count <= available,5);
     96a:	81 e0       	ldi	r24, 0x01	; 1
     96c:	01 17       	cp	r16, r17
     96e:	08 f4       	brcc	.+2      	; 0x972 <buffer_read_bytes+0x20>
     970:	80 e0       	ldi	r24, 0x00	; 0
     972:	65 e0       	ldi	r22, 0x05	; 5
     974:	0e 94 d4 00 	call	0x1a8	; 0x1a8 <assert>
    
	uint8_t * bytes = (uint8_t *) data;
	
	count = available > count ? count : available;
	for (size_t i = 0; i < count; i++, bytes++)
     978:	10 17       	cp	r17, r16
     97a:	08 f4       	brcc	.+2      	; 0x97e <buffer_read_bytes+0x2c>
     97c:	01 2f       	mov	r16, r17
     97e:	10 e0       	ldi	r17, 0x00	; 0
     980:	01 15       	cp	r16, r1
     982:	11 05       	cpc	r17, r1
     984:	49 f0       	breq	.+18     	; 0x998 <buffer_read_bytes+0x46>
     986:	0c 0f       	add	r16, r28
     988:	1d 1f       	adc	r17, r29
	{
		*bytes = buffer_read(buffer);
     98a:	c7 01       	movw	r24, r14
     98c:	0e 94 8d 04 	call	0x91a	; 0x91a <buffer_read>
     990:	89 93       	st	Y+, r24
	assert(count <= available,5);
    
	uint8_t * bytes = (uint8_t *) data;
	
	count = available > count ? count : available;
	for (size_t i = 0; i < count; i++, bytes++)
     992:	0c 17       	cp	r16, r28
     994:	1d 07       	cpc	r17, r29
     996:	c9 f7       	brne	.-14     	; 0x98a <buffer_read_bytes+0x38>
	{
		*bytes = buffer_read(buffer);
	}
}
     998:	df 91       	pop	r29
     99a:	cf 91       	pop	r28
     99c:	1f 91       	pop	r17
     99e:	0f 91       	pop	r16
     9a0:	ff 90       	pop	r15
     9a2:	ef 90       	pop	r14
     9a4:	08 95       	ret

000009a6 <buffer_clear>:

void buffer_clear(buffer_t buffer)
{
	buffer->tail = buffer->head = 0;
     9a6:	fc 01       	movw	r30, r24
     9a8:	13 82       	std	Z+3, r1	; 0x03
     9aa:	12 82       	std	Z+2, r1	; 0x02
     9ac:	11 82       	std	Z+1, r1	; 0x01
     9ae:	10 82       	st	Z, r1
     9b0:	08 95       	ret

000009b2 <buffer_is_empty>:
}

bool buffer_is_empty(buffer_t buffer)
{
     9b2:	fc 01       	movw	r30, r24
	return buffer->tail == buffer->head;
     9b4:	81 e0       	ldi	r24, 0x01	; 1
     9b6:	40 81       	ld	r20, Z
     9b8:	51 81       	ldd	r21, Z+1	; 0x01
     9ba:	22 81       	ldd	r18, Z+2	; 0x02
     9bc:	33 81       	ldd	r19, Z+3	; 0x03
     9be:	42 17       	cp	r20, r18
     9c0:	53 07       	cpc	r21, r19
     9c2:	09 f0       	breq	.+2      	; 0x9c6 <buffer_is_empty+0x14>
     9c4:	80 e0       	ldi	r24, 0x00	; 0
}
     9c6:	08 95       	ret

000009c8 <crc_8_checkSum>:
#include "crc_8_dallas.h"
#include <stdlib.h>
#include <string.h>

uint8_t crc_8_checkSum(const void *mas, uint8_t Len )
{
     9c8:	fc 01       	movw	r30, r24
	uint8_t i=0,dat=0,crc=0,fb=0,st_byt=0;
     9ca:	40 e0       	ldi	r20, 0x00	; 0
     9cc:	80 e0       	ldi	r24, 0x00	; 0
		for( i=0; i<8; i++) {  //    
			fb = crc ^ dat;
			fb &= 1;
			crc >>= 1;
			dat >>= 1;
			if( fb == 1 ) crc ^= 0x8c; // 
     9ce:	5c e8       	ldi	r21, 0x8C	; 140
	//uint8_t * var = calloc(Len, sizeof(uint8_t));//(uint8_t*)mas;
	//memcpy(var,mas,Len);
	//st_byt=0; crc=0;
	uint8_t * var = (uint8_t *)mas;
	do{
		dat= var[st_byt];
     9d0:	21 91       	ld	r18, Z+
     9d2:	98 e0       	ldi	r25, 0x08	; 8
		for( i=0; i<8; i++) {  //    
			fb = crc ^ dat;
     9d4:	32 2f       	mov	r19, r18
     9d6:	38 27       	eor	r19, r24
			fb &= 1;
			crc >>= 1;
     9d8:	86 95       	lsr	r24
			dat >>= 1;
     9da:	26 95       	lsr	r18
			if( fb == 1 ) crc ^= 0x8c; // 
     9dc:	30 fd       	sbrc	r19, 0
     9de:	85 27       	eor	r24, r21
     9e0:	91 50       	subi	r25, 0x01	; 1
	//memcpy(var,mas,Len);
	//st_byt=0; crc=0;
	uint8_t * var = (uint8_t *)mas;
	do{
		dat= var[st_byt];
		for( i=0; i<8; i++) {  //    
     9e2:	c1 f7       	brne	.-16     	; 0x9d4 <crc_8_checkSum+0xc>
			fb &= 1;
			crc >>= 1;
			dat >>= 1;
			if( fb == 1 ) crc ^= 0x8c; // 
		}
		st_byt++;
     9e4:	4f 5f       	subi	r20, 0xFF	; 255
	} while( st_byt < Len ); //    
     9e6:	46 17       	cp	r20, r22
     9e8:	98 f3       	brcs	.-26     	; 0x9d0 <crc_8_checkSum+0x8>
	return crc;
}
     9ea:	08 95       	ret

000009ec <ds18b20_read_rom>:
		last_dev_flag = FALSE;
		last_family_discrepancy = 0;
		search_result = DEVICE_MISSED;
	}
	return search_result;
}
     9ec:	ff 92       	push	r15
     9ee:	0f 93       	push	r16
     9f0:	1f 93       	push	r17
     9f2:	cf 93       	push	r28
     9f4:	df 93       	push	r29
     9f6:	ec 01       	movw	r28, r24
     9f8:	18 82       	st	Y, r1
     9fa:	19 82       	std	Y+1, r1	; 0x01
     9fc:	1a 82       	std	Y+2, r1	; 0x02
     9fe:	1b 82       	std	Y+3, r1	; 0x03
     a00:	1c 82       	std	Y+4, r1	; 0x04
     a02:	1d 82       	std	Y+5, r1	; 0x05
     a04:	1e 82       	std	Y+6, r1	; 0x06
     a06:	1f 82       	std	Y+7, r1	; 0x07
     a08:	0e 94 f9 06 	call	0xdf2	; 0xdf2 <one_wire_reset>
     a0c:	f8 2e       	mov	r15, r24
     a0e:	81 e0       	ldi	r24, 0x01	; 1
     a10:	f8 12       	cpse	r15, r24
     a12:	21 c0       	rjmp	.+66     	; 0xa56 <ds18b20_read_rom+0x6a>
     a14:	83 e3       	ldi	r24, 0x33	; 51
     a16:	0e 94 63 07 	call	0xec6	; 0xec6 <write_byte>
     a1a:	17 e0       	ldi	r17, 0x07	; 7
     a1c:	0e 94 36 07 	call	0xe6c	; 0xe6c <read_byte>
     a20:	28 81       	ld	r18, Y
     a22:	28 2b       	or	r18, r24
     a24:	39 81       	ldd	r19, Y+1	; 0x01
     a26:	4a 81       	ldd	r20, Y+2	; 0x02
     a28:	5b 81       	ldd	r21, Y+3	; 0x03
     a2a:	6c 81       	ldd	r22, Y+4	; 0x04
     a2c:	7d 81       	ldd	r23, Y+5	; 0x05
     a2e:	8e 81       	ldd	r24, Y+6	; 0x06
     a30:	9f 81       	ldd	r25, Y+7	; 0x07
     a32:	08 e0       	ldi	r16, 0x08	; 8
     a34:	0e 94 24 0b 	call	0x1648	; 0x1648 <__ashldi3>
     a38:	28 83       	st	Y, r18
     a3a:	39 83       	std	Y+1, r19	; 0x01
     a3c:	4a 83       	std	Y+2, r20	; 0x02
     a3e:	5b 83       	std	Y+3, r21	; 0x03
     a40:	6c 83       	std	Y+4, r22	; 0x04
     a42:	7d 83       	std	Y+5, r23	; 0x05
     a44:	8e 83       	std	Y+6, r24	; 0x06
     a46:	9f 83       	std	Y+7, r25	; 0x07
     a48:	11 50       	subi	r17, 0x01	; 1
     a4a:	41 f7       	brne	.-48     	; 0xa1c <ds18b20_read_rom+0x30>
     a4c:	0e 94 36 07 	call	0xe6c	; 0xe6c <read_byte>
     a50:	98 81       	ld	r25, Y
     a52:	89 2b       	or	r24, r25
     a54:	88 83       	st	Y, r24
     a56:	8f 2d       	mov	r24, r15
     a58:	df 91       	pop	r29
     a5a:	cf 91       	pop	r28
     a5c:	1f 91       	pop	r17
     a5e:	0f 91       	pop	r16
     a60:	ff 90       	pop	r15
     a62:	08 95       	ret

00000a64 <read_scratchpad>:
		*value<<=8;
		*value|=ROM_NO[i];
	}
}

void read_scratchpad(){
     a64:	cf 93       	push	r28
     a66:	df 93       	push	r29
	write_byte(READ_SCRATCHPAD);
     a68:	8e eb       	ldi	r24, 0xBE	; 190
     a6a:	0e 94 63 07 	call	0xec6	; 0xec6 <write_byte>
	scratchpad[0] = read_byte();
     a6e:	0e 94 36 07 	call	0xe6c	; 0xe6c <read_byte>
     a72:	c0 ea       	ldi	r28, 0xA0	; 160
     a74:	d3 e0       	ldi	r29, 0x03	; 3
     a76:	88 83       	st	Y, r24
	scratchpad[1] = read_byte();
     a78:	0e 94 36 07 	call	0xe6c	; 0xe6c <read_byte>
     a7c:	89 83       	std	Y+1, r24	; 0x01
	scratchpad[2] = read_byte();
     a7e:	0e 94 36 07 	call	0xe6c	; 0xe6c <read_byte>
     a82:	8a 83       	std	Y+2, r24	; 0x02
	scratchpad[3] = read_byte();
     a84:	0e 94 36 07 	call	0xe6c	; 0xe6c <read_byte>
     a88:	8b 83       	std	Y+3, r24	; 0x03
	scratchpad[4] = read_byte();
     a8a:	0e 94 36 07 	call	0xe6c	; 0xe6c <read_byte>
     a8e:	8c 83       	std	Y+4, r24	; 0x04
	scratchpad[5] = read_byte();
     a90:	0e 94 36 07 	call	0xe6c	; 0xe6c <read_byte>
     a94:	8d 83       	std	Y+5, r24	; 0x05
	scratchpad[6] = read_byte();
     a96:	0e 94 36 07 	call	0xe6c	; 0xe6c <read_byte>
     a9a:	8e 83       	std	Y+6, r24	; 0x06
	scratchpad[7] = read_byte();
     a9c:	0e 94 36 07 	call	0xe6c	; 0xe6c <read_byte>
     aa0:	8f 83       	std	Y+7, r24	; 0x07
	scratchpad[8] = read_byte();
     aa2:	0e 94 36 07 	call	0xe6c	; 0xe6c <read_byte>
     aa6:	88 87       	std	Y+8, r24	; 0x08
}
     aa8:	df 91       	pop	r29
     aaa:	cf 91       	pop	r28
     aac:	08 95       	ret

00000aae <write_rom_code>:

void write_rom_code(uint64_t rom_code){
     aae:	9f 92       	push	r9
     ab0:	af 92       	push	r10
     ab2:	bf 92       	push	r11
     ab4:	cf 92       	push	r12
     ab6:	df 92       	push	r13
     ab8:	ef 92       	push	r14
     aba:	ff 92       	push	r15
     abc:	0f 93       	push	r16
     abe:	1f 93       	push	r17
     ac0:	cf 93       	push	r28
     ac2:	df 93       	push	r29
     ac4:	92 2e       	mov	r9, r18
     ac6:	a3 2e       	mov	r10, r19
     ac8:	b4 2e       	mov	r11, r20
     aca:	c5 2e       	mov	r12, r21
     acc:	d6 2e       	mov	r13, r22
     ace:	e7 2e       	mov	r14, r23
     ad0:	f8 2e       	mov	r15, r24
     ad2:	19 2f       	mov	r17, r25
	write_byte(MATCH_ROM);
     ad4:	85 e5       	ldi	r24, 0x55	; 85
     ad6:	0e 94 63 07 	call	0xec6	; 0xec6 <write_byte>
     ada:	c0 e0       	ldi	r28, 0x00	; 0
     adc:	d0 e0       	ldi	r29, 0x00	; 0
	for(uint8_t i=0; i<64;i+=8)
	{
		uint8_t byte = ((rom_code<<i) & 0xFF00000000000000)>>56;
		write_byte(byte);
     ade:	29 2d       	mov	r18, r9
     ae0:	3a 2d       	mov	r19, r10
     ae2:	4b 2d       	mov	r20, r11
     ae4:	5c 2d       	mov	r21, r12
     ae6:	6d 2d       	mov	r22, r13
     ae8:	7e 2d       	mov	r23, r14
     aea:	8f 2d       	mov	r24, r15
     aec:	91 2f       	mov	r25, r17
     aee:	0c 2f       	mov	r16, r28
     af0:	0e 94 24 0b 	call	0x1648	; 0x1648 <__ashldi3>
     af4:	08 e3       	ldi	r16, 0x38	; 56
     af6:	0e 94 3f 0b 	call	0x167e	; 0x167e <__lshrdi3>
     afa:	82 2f       	mov	r24, r18
     afc:	0e 94 63 07 	call	0xec6	; 0xec6 <write_byte>
     b00:	28 96       	adiw	r28, 0x08	; 8
	scratchpad[8] = read_byte();
}

void write_rom_code(uint64_t rom_code){
	write_byte(MATCH_ROM);
	for(uint8_t i=0; i<64;i+=8)
     b02:	c0 34       	cpi	r28, 0x40	; 64
     b04:	d1 05       	cpc	r29, r1
     b06:	59 f7       	brne	.-42     	; 0xade <write_rom_code+0x30>
	{
		uint8_t byte = ((rom_code<<i) & 0xFF00000000000000)>>56;
		write_byte(byte);
	}
     b08:	df 91       	pop	r29
     b0a:	cf 91       	pop	r28
     b0c:	1f 91       	pop	r17
     b0e:	0f 91       	pop	r16
     b10:	ff 90       	pop	r15
     b12:	ef 90       	pop	r14
     b14:	df 90       	pop	r13
     b16:	cf 90       	pop	r12
     b18:	bf 90       	pop	r11
     b1a:	af 90       	pop	r10
     b1c:	9f 90       	pop	r9
     b1e:	08 95       	ret

00000b20 <ds18b20_get_temperature>:
	}
	return search_result;
}

device_state ds18b20_get_temperature(ds18b20_t *sensor)
{
     b20:	0f 93       	push	r16
     b22:	1f 93       	push	r17
     b24:	cf 93       	push	r28
     b26:	8c 01       	movw	r16, r24
	device_state state = one_wire_reset();
     b28:	0e 94 f9 06 	call	0xdf2	; 0xdf2 <one_wire_reset>
     b2c:	c8 2f       	mov	r28, r24
	if(state == DEVICE_OK)
     b2e:	81 30       	cpi	r24, 0x01	; 1
     b30:	09 f0       	breq	.+2      	; 0xb34 <ds18b20_get_temperature+0x14>
     b32:	61 c0       	rjmp	.+194    	; 0xbf6 <ds18b20_get_temperature+0xd6>
	{
		write_rom_code(sensor->rom_code);
     b34:	d8 01       	movw	r26, r16
     b36:	2c 91       	ld	r18, X
     b38:	11 96       	adiw	r26, 0x01	; 1
     b3a:	3c 91       	ld	r19, X
     b3c:	11 97       	sbiw	r26, 0x01	; 1
     b3e:	12 96       	adiw	r26, 0x02	; 2
     b40:	4c 91       	ld	r20, X
     b42:	12 97       	sbiw	r26, 0x02	; 2
     b44:	13 96       	adiw	r26, 0x03	; 3
     b46:	5c 91       	ld	r21, X
     b48:	13 97       	sbiw	r26, 0x03	; 3
     b4a:	14 96       	adiw	r26, 0x04	; 4
     b4c:	6c 91       	ld	r22, X
     b4e:	14 97       	sbiw	r26, 0x04	; 4
     b50:	15 96       	adiw	r26, 0x05	; 5
     b52:	7c 91       	ld	r23, X
     b54:	15 97       	sbiw	r26, 0x05	; 5
     b56:	16 96       	adiw	r26, 0x06	; 6
     b58:	8c 91       	ld	r24, X
     b5a:	16 97       	sbiw	r26, 0x06	; 6
     b5c:	17 96       	adiw	r26, 0x07	; 7
     b5e:	9c 91       	ld	r25, X
     b60:	0e 94 57 05 	call	0xaae	; 0xaae <write_rom_code>
		write_byte(TEMP_MEASURE);
     b64:	84 e4       	ldi	r24, 0x44	; 68
     b66:	0e 94 63 07 	call	0xec6	; 0xec6 <write_byte>
	#else
		//round up by default
		__ticks_dc = (uint32_t)(ceil(fabs(__tmp)));
	#endif

	__builtin_avr_delay_cycles(__ticks_dc);
     b6a:	e7 eb       	ldi	r30, 0xB7	; 183
     b6c:	fb e0       	ldi	r31, 0x0B	; 11
     b6e:	31 97       	sbiw	r30, 0x01	; 1
     b70:	f1 f7       	brne	.-4      	; 0xb6e <ds18b20_get_temperature+0x4e>
     b72:	00 c0       	rjmp	.+0      	; 0xb74 <ds18b20_get_temperature+0x54>
     b74:	00 00       	nop
		_delay_us(750);
		state = one_wire_reset();
     b76:	0e 94 f9 06 	call	0xdf2	; 0xdf2 <one_wire_reset>
     b7a:	c8 2f       	mov	r28, r24
		if(state == DEVICE_OK)
     b7c:	81 30       	cpi	r24, 0x01	; 1
     b7e:	d9 f5       	brne	.+118    	; 0xbf6 <ds18b20_get_temperature+0xd6>
		{
			write_rom_code(sensor->rom_code);
     b80:	d8 01       	movw	r26, r16
     b82:	2c 91       	ld	r18, X
     b84:	11 96       	adiw	r26, 0x01	; 1
     b86:	3c 91       	ld	r19, X
     b88:	11 97       	sbiw	r26, 0x01	; 1
     b8a:	12 96       	adiw	r26, 0x02	; 2
     b8c:	4c 91       	ld	r20, X
     b8e:	12 97       	sbiw	r26, 0x02	; 2
     b90:	13 96       	adiw	r26, 0x03	; 3
     b92:	5c 91       	ld	r21, X
     b94:	13 97       	sbiw	r26, 0x03	; 3
     b96:	14 96       	adiw	r26, 0x04	; 4
     b98:	6c 91       	ld	r22, X
     b9a:	14 97       	sbiw	r26, 0x04	; 4
     b9c:	15 96       	adiw	r26, 0x05	; 5
     b9e:	7c 91       	ld	r23, X
     ba0:	15 97       	sbiw	r26, 0x05	; 5
     ba2:	16 96       	adiw	r26, 0x06	; 6
     ba4:	8c 91       	ld	r24, X
     ba6:	16 97       	sbiw	r26, 0x06	; 6
     ba8:	17 96       	adiw	r26, 0x07	; 7
     baa:	9c 91       	ld	r25, X
     bac:	0e 94 57 05 	call	0xaae	; 0xaae <write_rom_code>
			read_scratchpad();
     bb0:	0e 94 32 05 	call	0xa64	; 0xa64 <read_scratchpad>
			if(crc_8_checkSum(scratchpad,sizeof(scratchpad))==0){
     bb4:	69 e0       	ldi	r22, 0x09	; 9
     bb6:	80 ea       	ldi	r24, 0xA0	; 160
     bb8:	93 e0       	ldi	r25, 0x03	; 3
     bba:	0e 94 e4 04 	call	0x9c8	; 0x9c8 <crc_8_checkSum>
     bbe:	81 11       	cpse	r24, r1
     bc0:	19 c0       	rjmp	.+50     	; 0xbf4 <ds18b20_get_temperature+0xd4>
				sensor->temperature = scratchpad[1];
     bc2:	e0 ea       	ldi	r30, 0xA0	; 160
     bc4:	f3 e0       	ldi	r31, 0x03	; 3
				sensor->temperature <<= 8;
				sensor->temperature = sensor->temperature|scratchpad[0];
     bc6:	81 81       	ldd	r24, Z+1	; 0x01
     bc8:	90 e0       	ldi	r25, 0x00	; 0
     bca:	98 2f       	mov	r25, r24
     bcc:	88 27       	eor	r24, r24
     bce:	20 81       	ld	r18, Z
     bd0:	82 2b       	or	r24, r18
     bd2:	d8 01       	movw	r26, r16
     bd4:	19 96       	adiw	r26, 0x09	; 9
     bd6:	9c 93       	st	X, r25
     bd8:	8e 93       	st	-X, r24
     bda:	18 97       	sbiw	r26, 0x08	; 8
				sensor->high_level_temp = scratchpad[2];
     bdc:	82 81       	ldd	r24, Z+2	; 0x02
     bde:	1a 96       	adiw	r26, 0x0a	; 10
     be0:	8c 93       	st	X, r24
     be2:	1a 97       	sbiw	r26, 0x0a	; 10
				sensor->low_level_temp = scratchpad[3];
     be4:	83 81       	ldd	r24, Z+3	; 0x03
     be6:	1b 96       	adiw	r26, 0x0b	; 11
     be8:	8c 93       	st	X, r24
     bea:	1b 97       	sbiw	r26, 0x0b	; 11
				sensor->config = scratchpad[4];
     bec:	84 81       	ldd	r24, Z+4	; 0x04
     bee:	1c 96       	adiw	r26, 0x0c	; 12
     bf0:	8c 93       	st	X, r24
     bf2:	01 c0       	rjmp	.+2      	; 0xbf6 <ds18b20_get_temperature+0xd6>
			}
			else{
				state = CRC_ERROR;
     bf4:	c3 e0       	ldi	r28, 0x03	; 3
			}
		}
		
	}
	return state;
}
     bf6:	8c 2f       	mov	r24, r28
     bf8:	cf 91       	pop	r28
     bfa:	1f 91       	pop	r17
     bfc:	0f 91       	pop	r16
     bfe:	08 95       	ret

00000c00 <watchdog_off>:
	asm("sei");
	hw_run();
}

void watchdog_off(void){
	wdt_reset();
     c00:	a8 95       	wdr
	WDTCR |= (1<<WDCE) | (1<<WDE);
     c02:	81 b5       	in	r24, 0x21	; 33
     c04:	88 61       	ori	r24, 0x18	; 24
     c06:	81 bd       	out	0x21, r24	; 33
	WDTCR = 0x0;
     c08:	11 bc       	out	0x21, r1	; 33
     c0a:	08 95       	ret

00000c0c <main>:
		
void watchdog_off(void);

int main(void)
{
	asm("cli");
     c0c:	f8 94       	cli
	_hw_device.display_baud = 19200;
     c0e:	e5 e9       	ldi	r30, 0x95	; 149
     c10:	f3 e0       	ldi	r31, 0x03	; 3
     c12:	80 e0       	ldi	r24, 0x00	; 0
     c14:	9b e4       	ldi	r25, 0x4B	; 75
     c16:	a0 e0       	ldi	r26, 0x00	; 0
     c18:	b0 e0       	ldi	r27, 0x00	; 0
     c1a:	81 83       	std	Z+1, r24	; 0x01
     c1c:	92 83       	std	Z+2, r25	; 0x02
     c1e:	a3 83       	std	Z+3, r26	; 0x03
     c20:	b4 83       	std	Z+4, r27	; 0x04
	_hw_device.modbus_address = 1;
     c22:	81 e0       	ldi	r24, 0x01	; 1
     c24:	80 83       	st	Z, r24
	_hw_device.modbus_baud = 9600;
     c26:	80 e8       	ldi	r24, 0x80	; 128
     c28:	95 e2       	ldi	r25, 0x25	; 37
     c2a:	a0 e0       	ldi	r26, 0x00	; 0
     c2c:	b0 e0       	ldi	r27, 0x00	; 0
     c2e:	85 83       	std	Z+5, r24	; 0x05
     c30:	96 83       	std	Z+6, r25	; 0x06
     c32:	a7 83       	std	Z+7, r26	; 0x07
     c34:	b0 87       	std	Z+8, r27	; 0x08
	watchdog_off();
     c36:	0e 94 00 06 	call	0xc00	; 0xc00 <watchdog_off>
	#else
		//round up by default
		__ticks_dc = (uint32_t)(ceil(fabs(__tmp)));
	#endif

	__builtin_avr_delay_cycles(__ticks_dc);
     c3a:	2f ef       	ldi	r18, 0xFF	; 255
     c3c:	83 ed       	ldi	r24, 0xD3	; 211
     c3e:	90 e3       	ldi	r25, 0x30	; 48
     c40:	21 50       	subi	r18, 0x01	; 1
     c42:	80 40       	sbci	r24, 0x00	; 0
     c44:	90 40       	sbci	r25, 0x00	; 0
     c46:	e1 f7       	brne	.-8      	; 0xc40 <main+0x34>
     c48:	00 c0       	rjmp	.+0      	; 0xc4a <main+0x3e>
     c4a:	00 00       	nop
	_delay_ms(1000);
	hw_init(&_hw_device);	
     c4c:	85 e9       	ldi	r24, 0x95	; 149
     c4e:	93 e0       	ldi	r25, 0x03	; 3
     c50:	0e 94 1d 02 	call	0x43a	; 0x43a <hw_init>
	asm("sei");
     c54:	78 94       	sei
	hw_run();
     c56:	0e 94 b9 02 	call	0x572	; 0x572 <hw_run>
}
     c5a:	80 e0       	ldi	r24, 0x00	; 0
     c5c:	90 e0       	ldi	r25, 0x00	; 0
     c5e:	08 95       	ret

00000c60 <nextion_display_init>:
void send_ffffff(void);
void send_item(item_t *item);

void nextion_display_init(usart_t *usart)
{
	_usart = *usart;
     c60:	fc 01       	movw	r30, r24
     c62:	80 81       	ld	r24, Z
     c64:	91 81       	ldd	r25, Z+1	; 0x01
     c66:	90 93 9f 03 	sts	0x039F, r25	; 0x80039f <_usart+0x1>
     c6a:	80 93 9e 03 	sts	0x039E, r24	; 0x80039e <_usart>
	usart_reset(_usart);
     c6e:	0e 94 a0 08 	call	0x1140	; 0x1140 <usart_reset>
     c72:	08 95       	ret

00000c74 <nextion_display_create_row>:
}

void nextion_display_create_row(display_row *row, const char *whole_id, const char *frac_id, const char *conn_id){
     c74:	fc 01       	movw	r30, r24
	row->whole.string_id = whole_id;
     c76:	73 83       	std	Z+3, r23	; 0x03
     c78:	62 83       	std	Z+2, r22	; 0x02
	row->frac.string_id = frac_id;
     c7a:	57 83       	std	Z+7, r21	; 0x07
     c7c:	46 83       	std	Z+6, r20	; 0x06
	row->conn.string_id = conn_id;
     c7e:	33 87       	std	Z+11, r19	; 0x0b
     c80:	22 87       	std	Z+10, r18	; 0x0a
     c82:	08 95       	ret

00000c84 <send_ffffff>:
		send_ffffff();
	}	
}

void send_ffffff(void)
{
     c84:	cf 93       	push	r28
     c86:	df 93       	push	r29
     c88:	00 d0       	rcall	.+0      	; 0xc8a <send_ffffff+0x6>
     c8a:	00 d0       	rcall	.+0      	; 0xc8c <send_ffffff+0x8>
     c8c:	cd b7       	in	r28, 0x3d	; 61
     c8e:	de b7       	in	r29, 0x3e	; 62
	uint32_t var = 0xFFFFFF;
     c90:	8f ef       	ldi	r24, 0xFF	; 255
     c92:	9f ef       	ldi	r25, 0xFF	; 255
     c94:	af ef       	ldi	r26, 0xFF	; 255
     c96:	b0 e0       	ldi	r27, 0x00	; 0
     c98:	89 83       	std	Y+1, r24	; 0x01
     c9a:	9a 83       	std	Y+2, r25	; 0x02
     c9c:	ab 83       	std	Y+3, r26	; 0x03
     c9e:	bc 83       	std	Y+4, r27	; 0x04
	usart_write(_usart,&var,3);
     ca0:	43 e0       	ldi	r20, 0x03	; 3
     ca2:	50 e0       	ldi	r21, 0x00	; 0
     ca4:	be 01       	movw	r22, r28
     ca6:	6f 5f       	subi	r22, 0xFF	; 255
     ca8:	7f 4f       	sbci	r23, 0xFF	; 255
     caa:	80 91 9e 03 	lds	r24, 0x039E	; 0x80039e <_usart>
     cae:	90 91 9f 03 	lds	r25, 0x039F	; 0x80039f <_usart+0x1>
     cb2:	0e 94 b3 08 	call	0x1166	; 0x1166 <usart_write>
}
     cb6:	0f 90       	pop	r0
     cb8:	0f 90       	pop	r0
     cba:	0f 90       	pop	r0
     cbc:	0f 90       	pop	r0
     cbe:	df 91       	pop	r29
     cc0:	cf 91       	pop	r28
     cc2:	08 95       	ret

00000cc4 <send_item>:
	send_item(&row->whole);
	send_item(&row->frac);
	send_item(&row->conn);
}

void send_item(item_t *item){
     cc4:	ef 92       	push	r14
     cc6:	ff 92       	push	r15
     cc8:	1f 93       	push	r17
     cca:	cf 93       	push	r28
     ccc:	df 93       	push	r29
     cce:	00 d0       	rcall	.+0      	; 0xcd0 <send_item+0xc>
     cd0:	00 d0       	rcall	.+0      	; 0xcd2 <send_item+0xe>
     cd2:	cd b7       	in	r28, 0x3d	; 61
     cd4:	de b7       	in	r29, 0x3e	; 62
     cd6:	fc 01       	movw	r30, r24
	char value[3];
	if(abs(item->value - item->prev_value)>DEATHBAND){
     cd8:	91 81       	ldd	r25, Z+1	; 0x01
     cda:	49 2f       	mov	r20, r25
     cdc:	09 2e       	mov	r0, r25
     cde:	00 0c       	add	r0, r0
     ce0:	55 0b       	sbc	r21, r21
     ce2:	80 81       	ld	r24, Z
     ce4:	ba 01       	movw	r22, r20
     ce6:	68 1b       	sub	r22, r24
     ce8:	71 09       	sbc	r23, r1
     cea:	87 fd       	sbrc	r24, 7
     cec:	73 95       	inc	r23
     cee:	9b 01       	movw	r18, r22
     cf0:	77 23       	and	r23, r23
     cf2:	24 f4       	brge	.+8      	; 0xcfc <send_item+0x38>
     cf4:	22 27       	eor	r18, r18
     cf6:	33 27       	eor	r19, r19
     cf8:	26 1b       	sub	r18, r22
     cfa:	37 0b       	sbc	r19, r23
     cfc:	22 30       	cpi	r18, 0x02	; 2
     cfe:	31 05       	cpc	r19, r1
     d00:	0c f4       	brge	.+2      	; 0xd04 <send_item+0x40>
     d02:	5d c0       	rjmp	.+186    	; 0xdbe <send_item+0xfa>
     d04:	7f 01       	movw	r14, r30
		item->prev_value = item->value;
     d06:	90 83       	st	Z, r25
		if(item->value>=0)
     d08:	99 23       	and	r25, r25
     d0a:	9c f0       	brlt	.+38     	; 0xd32 <send_item+0x6e>
		sprintf(value,"%d",item->value);
     d0c:	5f 93       	push	r21
     d0e:	9f 93       	push	r25
     d10:	87 e5       	ldi	r24, 0x57	; 87
     d12:	92 e0       	ldi	r25, 0x02	; 2
     d14:	9f 93       	push	r25
     d16:	8f 93       	push	r24
     d18:	ce 01       	movw	r24, r28
     d1a:	01 96       	adiw	r24, 0x01	; 1
     d1c:	9f 93       	push	r25
     d1e:	8f 93       	push	r24
     d20:	0e 94 5b 0b 	call	0x16b6	; 0x16b6 <sprintf>
     d24:	0f 90       	pop	r0
     d26:	0f 90       	pop	r0
     d28:	0f 90       	pop	r0
     d2a:	0f 90       	pop	r0
     d2c:	0f 90       	pop	r0
     d2e:	0f 90       	pop	r0
     d30:	12 c0       	rjmp	.+36     	; 0xd56 <send_item+0x92>
		else
		sprintf(value,"%+d",item->value);
     d32:	5f 93       	push	r21
     d34:	9f 93       	push	r25
     d36:	8a e5       	ldi	r24, 0x5A	; 90
     d38:	92 e0       	ldi	r25, 0x02	; 2
     d3a:	9f 93       	push	r25
     d3c:	8f 93       	push	r24
     d3e:	ce 01       	movw	r24, r28
     d40:	01 96       	adiw	r24, 0x01	; 1
     d42:	9f 93       	push	r25
     d44:	8f 93       	push	r24
     d46:	0e 94 5b 0b 	call	0x16b6	; 0x16b6 <sprintf>
     d4a:	0f 90       	pop	r0
     d4c:	0f 90       	pop	r0
     d4e:	0f 90       	pop	r0
     d50:	0f 90       	pop	r0
     d52:	0f 90       	pop	r0
     d54:	0f 90       	pop	r0
		char ch = 0;
		uint8_t i = 0;
		while((ch = pgm_read_byte(item->string_id+i)) != '\0'){
     d56:	d7 01       	movw	r26, r14
     d58:	12 96       	adiw	r26, 0x02	; 2
     d5a:	ed 91       	ld	r30, X+
     d5c:	fc 91       	ld	r31, X
     d5e:	13 97       	sbiw	r26, 0x03	; 3
     d60:	e4 91       	lpm	r30, Z
     d62:	ec 83       	std	Y+4, r30	; 0x04
     d64:	ee 23       	and	r30, r30
     d66:	c1 f0       	breq	.+48     	; 0xd98 <send_item+0xd4>
     d68:	10 e0       	ldi	r17, 0x00	; 0
			usart_write(_usart, &ch, sizeof(char));
     d6a:	41 e0       	ldi	r20, 0x01	; 1
     d6c:	50 e0       	ldi	r21, 0x00	; 0
     d6e:	be 01       	movw	r22, r28
     d70:	6c 5f       	subi	r22, 0xFC	; 252
     d72:	7f 4f       	sbci	r23, 0xFF	; 255
     d74:	80 91 9e 03 	lds	r24, 0x039E	; 0x80039e <_usart>
     d78:	90 91 9f 03 	lds	r25, 0x039F	; 0x80039f <_usart+0x1>
     d7c:	0e 94 b3 08 	call	0x1166	; 0x1166 <usart_write>
			i++;
     d80:	1f 5f       	subi	r17, 0xFF	; 255
		sprintf(value,"%d",item->value);
		else
		sprintf(value,"%+d",item->value);
		char ch = 0;
		uint8_t i = 0;
		while((ch = pgm_read_byte(item->string_id+i)) != '\0'){
     d82:	d7 01       	movw	r26, r14
     d84:	12 96       	adiw	r26, 0x02	; 2
     d86:	ed 91       	ld	r30, X+
     d88:	fc 91       	ld	r31, X
     d8a:	13 97       	sbiw	r26, 0x03	; 3
     d8c:	e1 0f       	add	r30, r17
     d8e:	f1 1d       	adc	r31, r1
     d90:	e4 91       	lpm	r30, Z
     d92:	ec 83       	std	Y+4, r30	; 0x04
     d94:	e1 11       	cpse	r30, r1
     d96:	e9 cf       	rjmp	.-46     	; 0xd6a <send_item+0xa6>
			usart_write(_usart, &ch, sizeof(char));
			i++;
		}
		//usart_write(_usart, item->string_id, strlen(item->string_id));
		usart_write(_usart, value, strlen(value));
     d98:	be 01       	movw	r22, r28
     d9a:	6f 5f       	subi	r22, 0xFF	; 255
     d9c:	7f 4f       	sbci	r23, 0xFF	; 255
     d9e:	fb 01       	movw	r30, r22
     da0:	01 90       	ld	r0, Z+
     da2:	00 20       	and	r0, r0
     da4:	e9 f7       	brne	.-6      	; 0xda0 <send_item+0xdc>
     da6:	31 97       	sbiw	r30, 0x01	; 1
     da8:	af 01       	movw	r20, r30
     daa:	46 1b       	sub	r20, r22
     dac:	57 0b       	sbc	r21, r23
     dae:	80 91 9e 03 	lds	r24, 0x039E	; 0x80039e <_usart>
     db2:	90 91 9f 03 	lds	r25, 0x039F	; 0x80039f <_usart+0x1>
     db6:	0e 94 b3 08 	call	0x1166	; 0x1166 <usart_write>
		send_ffffff();
     dba:	0e 94 42 06 	call	0xc84	; 0xc84 <send_ffffff>
	}	
}
     dbe:	0f 90       	pop	r0
     dc0:	0f 90       	pop	r0
     dc2:	0f 90       	pop	r0
     dc4:	0f 90       	pop	r0
     dc6:	df 91       	pop	r29
     dc8:	cf 91       	pop	r28
     dca:	1f 91       	pop	r17
     dcc:	ff 90       	pop	r15
     dce:	ef 90       	pop	r14
     dd0:	08 95       	ret

00000dd2 <nextion_display_refresh_row>:
	row->whole.string_id = whole_id;
	row->frac.string_id = frac_id;
	row->conn.string_id = conn_id;
}

void nextion_display_refresh_row(display_row *row){
     dd2:	cf 93       	push	r28
     dd4:	df 93       	push	r29
     dd6:	ec 01       	movw	r28, r24
	send_item(&row->whole);
     dd8:	0e 94 62 06 	call	0xcc4	; 0xcc4 <send_item>
	send_item(&row->frac);
     ddc:	ce 01       	movw	r24, r28
     dde:	04 96       	adiw	r24, 0x04	; 4
     de0:	0e 94 62 06 	call	0xcc4	; 0xcc4 <send_item>
	send_item(&row->conn);
     de4:	ce 01       	movw	r24, r28
     de6:	08 96       	adiw	r24, 0x08	; 8
     de8:	0e 94 62 06 	call	0xcc4	; 0xcc4 <send_item>
}
     dec:	df 91       	pop	r29
     dee:	cf 91       	pop	r28
     df0:	08 95       	ret

00000df2 <one_wire_reset>:
void write_1();

//      1-wire
device_state one_wire_reset()
{
	ATOMIC_BLOCK(ATOMIC_RESTORESTATE){
     df2:	9f b7       	in	r25, 0x3f	; 63
    return 1;
}

static __inline__ uint8_t __iCliRetVal(void)
{
    cli();
     df4:	f8 94       	cli
		SET_IOPIN_TO_OUT;
     df6:	d0 9a       	sbi	0x1a, 0	; 26
		PULL_DOWN_IOPIN;
     df8:	d8 98       	cbi	0x1b, 0	; 27
	#else
		//round up by default
		__ticks_dc = (uint32_t)(ceil(fabs(__tmp)));
	#endif

	__builtin_avr_delay_cycles(__ticks_dc);
     dfa:	ef ee       	ldi	r30, 0xEF	; 239
     dfc:	fa e0       	ldi	r31, 0x0A	; 10
     dfe:	31 97       	sbiw	r30, 0x01	; 1
     e00:	f1 f7       	brne	.-4      	; 0xdfe <one_wire_reset+0xc>
     e02:	00 c0       	rjmp	.+0      	; 0xe04 <one_wire_reset+0x12>
     e04:	00 00       	nop
		_delay_us(700);
		PULL_UP_IOPIN;
     e06:	d8 9a       	sbi	0x1b, 0	; 27
     e08:	eb e2       	ldi	r30, 0x2B	; 43
     e0a:	f1 e0       	ldi	r31, 0x01	; 1
     e0c:	31 97       	sbiw	r30, 0x01	; 1
     e0e:	f1 f7       	brne	.-4      	; 0xe0c <one_wire_reset+0x1a>
     e10:	00 c0       	rjmp	.+0      	; 0xe12 <one_wire_reset+0x20>
     e12:	00 00       	nop
		_delay_us(75);
		SET_IOPIN_TO_IN;
     e14:	d0 98       	cbi	0x1a, 0	; 26
		if(GET_IOPIN_STATE)
     e16:	c8 99       	sbic	0x19, 0	; 25
     e18:	0c c0       	rjmp	.+24     	; 0xe32 <one_wire_reset+0x40>
     e1a:	ef ee       	ldi	r30, 0xEF	; 239
     e1c:	fa e0       	ldi	r31, 0x0A	; 10
     e1e:	31 97       	sbiw	r30, 0x01	; 1
     e20:	f1 f7       	brne	.-4      	; 0xe1e <one_wire_reset+0x2c>
     e22:	00 c0       	rjmp	.+0      	; 0xe24 <one_wire_reset+0x32>
     e24:	00 00       	nop
		return DEVICE_MISSED;
		_delay_us(700);
		if(!GET_IOPIN_STATE)
     e26:	89 b3       	in	r24, 0x19	; 25
     e28:	88 23       	and	r24, r24
     e2a:	29 f0       	breq	.+10     	; 0xe36 <one_wire_reset+0x44>
    (void)__s;
}

static __inline__ void __iRestore(const  uint8_t *__s)
{
    SREG = *__s;
     e2c:	9f bf       	out	0x3f, r25	; 63
		return DEVICE_SHORT;
	}
	return DEVICE_OK;
     e2e:	81 e0       	ldi	r24, 0x01	; 1
     e30:	08 95       	ret
		_delay_us(700);
		PULL_UP_IOPIN;
		_delay_us(75);
		SET_IOPIN_TO_IN;
		if(GET_IOPIN_STATE)
		return DEVICE_MISSED;
     e32:	80 e0       	ldi	r24, 0x00	; 0
     e34:	01 c0       	rjmp	.+2      	; 0xe38 <one_wire_reset+0x46>
		_delay_us(700);
		if(!GET_IOPIN_STATE)
		return DEVICE_SHORT;
     e36:	82 e0       	ldi	r24, 0x02	; 2
     e38:	9f bf       	out	0x3f, r25	; 63
	}
	return DEVICE_OK;
}
     e3a:	08 95       	ret

00000e3c <read_bit>:
	return data;
}

uint8_t read_bit(){
	uint8_t data = 0;
	SET_IOPIN_TO_OUT;
     e3c:	d0 9a       	sbi	0x1a, 0	; 26
	PULL_DOWN_IOPIN;
     e3e:	d8 98       	cbi	0x1b, 0	; 27
     e40:	80 e1       	ldi	r24, 0x10	; 16
     e42:	8a 95       	dec	r24
     e44:	f1 f7       	brne	.-4      	; 0xe42 <read_bit+0x6>
	_delay_us(3);
	PULL_UP_IOPIN;
     e46:	d8 9a       	sbi	0x1b, 0	; 27
	SET_IOPIN_TO_IN;
     e48:	d0 98       	cbi	0x1a, 0	; 26
     e4a:	e0 e4       	ldi	r30, 0x40	; 64
     e4c:	ea 95       	dec	r30
     e4e:	f1 f7       	brne	.-4      	; 0xe4c <read_bit+0x10>
	_delay_us(12);	
	if(GET_IOPIN_STATE)
     e50:	c8 9b       	sbis	0x19, 0	; 25
     e52:	02 c0       	rjmp	.+4      	; 0xe58 <read_bit+0x1c>
	{
		data|=0x80; //0x01
     e54:	80 e8       	ldi	r24, 0x80	; 128
     e56:	01 c0       	rjmp	.+2      	; 0xe5a <read_bit+0x1e>
	}
	return data;
}

uint8_t read_bit(){
	uint8_t data = 0;
     e58:	80 e0       	ldi	r24, 0x00	; 0
	_delay_us(12);	
	if(GET_IOPIN_STATE)
	{
		data|=0x80; //0x01
	}
	SET_IOPIN_TO_OUT;
     e5a:	d0 9a       	sbi	0x1a, 0	; 26
	PULL_UP_IOPIN;
     e5c:	d8 9a       	sbi	0x1b, 0	; 27
     e5e:	eb e2       	ldi	r30, 0x2B	; 43
     e60:	f1 e0       	ldi	r31, 0x01	; 1
     e62:	31 97       	sbiw	r30, 0x01	; 1
     e64:	f1 f7       	brne	.-4      	; 0xe62 <read_bit+0x26>
     e66:	00 c0       	rjmp	.+0      	; 0xe68 <read_bit+0x2c>
     e68:	00 00       	nop
	_delay_us(75);	
	return data;
}
     e6a:	08 95       	ret

00000e6c <read_byte>:
		}
	}
}

uint8_t read_byte()
{
     e6c:	1f 93       	push	r17
     e6e:	cf 93       	push	r28
     e70:	df 93       	push	r29
	uint8_t data = 0;
	ATOMIC_BLOCK(ATOMIC_RESTORESTATE)
     e72:	1f b7       	in	r17, 0x3f	; 63
    return 1;
}

static __inline__ uint8_t __iCliRetVal(void)
{
    cli();
     e74:	f8 94       	cli
	{
		SET_IOPIN_TO_OUT;
     e76:	d0 9a       	sbi	0x1a, 0	; 26
     e78:	d8 e0       	ldi	r29, 0x08	; 8
     e7a:	80 e0       	ldi	r24, 0x00	; 0
		for(uint8_t i=8;i>0;--i)
		{
			data>>=1; //        -   
     e7c:	c8 2f       	mov	r28, r24
     e7e:	c6 95       	lsr	r28
			data |= read_bit();
     e80:	0e 94 1e 07 	call	0xe3c	; 0xe3c <read_bit>
     e84:	8c 2b       	or	r24, r28
     e86:	d1 50       	subi	r29, 0x01	; 1
{
	uint8_t data = 0;
	ATOMIC_BLOCK(ATOMIC_RESTORESTATE)
	{
		SET_IOPIN_TO_OUT;
		for(uint8_t i=8;i>0;--i)
     e88:	c9 f7       	brne	.-14     	; 0xe7c <read_byte+0x10>
    (void)__s;
}

static __inline__ void __iRestore(const  uint8_t *__s)
{
    SREG = *__s;
     e8a:	1f bf       	out	0x3f, r17	; 63
			data>>=1; //        -   
			data |= read_bit();
		}
	}
	return data;
}
     e8c:	df 91       	pop	r29
     e8e:	cf 91       	pop	r28
     e90:	1f 91       	pop	r17
     e92:	08 95       	ret

00000e94 <write_0>:
	_delay_us(75);	
	return data;
}

void write_0(){
	SET_IOPIN_TO_OUT;
     e94:	d0 9a       	sbi	0x1a, 0	; 26
	PULL_DOWN_IOPIN;
     e96:	d8 98       	cbi	0x1b, 0	; 27
     e98:	80 e5       	ldi	r24, 0x50	; 80
     e9a:	8a 95       	dec	r24
     e9c:	f1 f7       	brne	.-4      	; 0xe9a <write_0+0x6>
     e9e:	80 ef       	ldi	r24, 0xF0	; 240
     ea0:	8a 95       	dec	r24
     ea2:	f1 f7       	brne	.-4      	; 0xea0 <write_0+0xc>
	_delay_us(15);
	_delay_us(45);
	PULL_UP_IOPIN;
     ea4:	d8 9a       	sbi	0x1b, 0	; 27
     ea6:	8a e0       	ldi	r24, 0x0A	; 10
     ea8:	8a 95       	dec	r24
     eaa:	f1 f7       	brne	.-4      	; 0xea8 <write_0+0x14>
     eac:	00 c0       	rjmp	.+0      	; 0xeae <write_0+0x1a>
     eae:	08 95       	ret

00000eb0 <write_1>:
	_delay_us(2);
}

void write_1(){
	SET_IOPIN_TO_OUT;
     eb0:	d0 9a       	sbi	0x1a, 0	; 26
	PULL_DOWN_IOPIN;
     eb2:	d8 98       	cbi	0x1b, 0	; 27
     eb4:	80 e5       	ldi	r24, 0x50	; 80
     eb6:	8a 95       	dec	r24
     eb8:	f1 f7       	brne	.-4      	; 0xeb6 <write_1+0x6>
	_delay_us(15);
	PULL_UP_IOPIN;
     eba:	d8 9a       	sbi	0x1b, 0	; 27
     ebc:	8a ef       	ldi	r24, 0xFA	; 250
     ebe:	8a 95       	dec	r24
     ec0:	f1 f7       	brne	.-4      	; 0xebe <write_1+0xe>
     ec2:	00 c0       	rjmp	.+0      	; 0xec4 <write_1+0x14>
     ec4:	08 95       	ret

00000ec6 <write_byte>:
	}
	return DEVICE_OK;
}

void write_byte(uint8_t data)
{
     ec6:	df 92       	push	r13
     ec8:	ef 92       	push	r14
     eca:	ff 92       	push	r15
     ecc:	0f 93       	push	r16
     ece:	1f 93       	push	r17
     ed0:	cf 93       	push	r28
     ed2:	df 93       	push	r29
	ATOMIC_BLOCK(ATOMIC_RESTORESTATE)
     ed4:	df b6       	in	r13, 0x3f	; 63
    return 1;
}

static __inline__ uint8_t __iCliRetVal(void)
{
    cli();
     ed6:	f8 94       	cli
     ed8:	08 e0       	ldi	r16, 0x08	; 8
     eda:	10 e0       	ldi	r17, 0x00	; 0
     edc:	c1 e0       	ldi	r28, 0x01	; 1
     ede:	d0 e0       	ldi	r29, 0x00	; 0
	{
		for(uint16_t i=1;i<=128;i*=2){
			if(data & i)
     ee0:	e8 2e       	mov	r14, r24
     ee2:	f1 2c       	mov	r15, r1
     ee4:	c7 01       	movw	r24, r14
     ee6:	8c 23       	and	r24, r28
     ee8:	9d 23       	and	r25, r29
     eea:	89 2b       	or	r24, r25
     eec:	19 f0       	breq	.+6      	; 0xef4 <write_byte+0x2e>
			write_1();
     eee:	0e 94 58 07 	call	0xeb0	; 0xeb0 <write_1>
     ef2:	02 c0       	rjmp	.+4      	; 0xef8 <write_byte+0x32>
			else
			write_0();
     ef4:	0e 94 4a 07 	call	0xe94	; 0xe94 <write_0>

void write_byte(uint8_t data)
{
	ATOMIC_BLOCK(ATOMIC_RESTORESTATE)
	{
		for(uint16_t i=1;i<=128;i*=2){
     ef8:	cc 0f       	add	r28, r28
     efa:	dd 1f       	adc	r29, r29
     efc:	01 50       	subi	r16, 0x01	; 1
     efe:	11 09       	sbc	r17, r1
     f00:	89 f7       	brne	.-30     	; 0xee4 <write_byte+0x1e>
    (void)__s;
}

static __inline__ void __iRestore(const  uint8_t *__s)
{
    SREG = *__s;
     f02:	df be       	out	0x3f, r13	; 63
			write_1();
			else
			write_0();
		}
	}
}
     f04:	df 91       	pop	r29
     f06:	cf 91       	pop	r28
     f08:	1f 91       	pop	r17
     f0a:	0f 91       	pop	r16
     f0c:	ff 90       	pop	r15
     f0e:	ef 90       	pop	r14
     f10:	df 90       	pop	r13
     f12:	08 95       	ret

00000f14 <usart_0_init>:
	{
		result = buffer_is_empty(usart->rx_buffer);
	}
	
	return result;
}
     f14:	dc 01       	movw	r26, r24
     f16:	cb 01       	movw	r24, r22
     f18:	88 0f       	add	r24, r24
     f1a:	99 1f       	adc	r25, r25
     f1c:	aa 1f       	adc	r26, r26
     f1e:	bb 1f       	adc	r27, r27
     f20:	88 0f       	add	r24, r24
     f22:	99 1f       	adc	r25, r25
     f24:	aa 1f       	adc	r26, r26
     f26:	bb 1f       	adc	r27, r27
     f28:	9c 01       	movw	r18, r24
     f2a:	ad 01       	movw	r20, r26
     f2c:	22 0f       	add	r18, r18
     f2e:	33 1f       	adc	r19, r19
     f30:	44 1f       	adc	r20, r20
     f32:	55 1f       	adc	r21, r21
     f34:	22 0f       	add	r18, r18
     f36:	33 1f       	adc	r19, r19
     f38:	44 1f       	adc	r20, r20
     f3a:	55 1f       	adc	r21, r21
     f3c:	60 e0       	ldi	r22, 0x00	; 0
     f3e:	74 e2       	ldi	r23, 0x24	; 36
     f40:	84 ef       	ldi	r24, 0xF4	; 244
     f42:	90 e0       	ldi	r25, 0x00	; 0
     f44:	0e 94 02 0b 	call	0x1604	; 0x1604 <__udivmodsi4>
     f48:	da 01       	movw	r26, r20
     f4a:	c9 01       	movw	r24, r18
     f4c:	01 97       	sbiw	r24, 0x01	; 1
     f4e:	a1 09       	sbc	r26, r1
     f50:	b1 09       	sbc	r27, r1
     f52:	89 b9       	out	0x09, r24	; 9
     f54:	89 2f       	mov	r24, r25
     f56:	9a 2f       	mov	r25, r26
     f58:	ab 2f       	mov	r26, r27
     f5a:	bb 27       	eor	r27, r27
     f5c:	a7 fd       	sbrc	r26, 7
     f5e:	ba 95       	dec	r27
     f60:	80 bd       	out	0x20, r24	; 32
     f62:	1b b8       	out	0x0b, r1	; 11
     f64:	88 ed       	ldi	r24, 0xD8	; 216
     f66:	8a b9       	out	0x0a, r24	; 10
     f68:	86 e8       	ldi	r24, 0x86	; 134
     f6a:	80 bd       	out	0x20, r24	; 32
     f6c:	08 95       	ret

00000f6e <usart_1_init>:
     f6e:	dc 01       	movw	r26, r24
     f70:	cb 01       	movw	r24, r22
     f72:	88 0f       	add	r24, r24
     f74:	99 1f       	adc	r25, r25
     f76:	aa 1f       	adc	r26, r26
     f78:	bb 1f       	adc	r27, r27
     f7a:	88 0f       	add	r24, r24
     f7c:	99 1f       	adc	r25, r25
     f7e:	aa 1f       	adc	r26, r26
     f80:	bb 1f       	adc	r27, r27
     f82:	9c 01       	movw	r18, r24
     f84:	ad 01       	movw	r20, r26
     f86:	22 0f       	add	r18, r18
     f88:	33 1f       	adc	r19, r19
     f8a:	44 1f       	adc	r20, r20
     f8c:	55 1f       	adc	r21, r21
     f8e:	60 e0       	ldi	r22, 0x00	; 0
     f90:	74 e2       	ldi	r23, 0x24	; 36
     f92:	84 ef       	ldi	r24, 0xF4	; 244
     f94:	90 e0       	ldi	r25, 0x00	; 0
     f96:	0e 94 02 0b 	call	0x1604	; 0x1604 <__udivmodsi4>
     f9a:	da 01       	movw	r26, r20
     f9c:	c9 01       	movw	r24, r18
     f9e:	01 97       	sbiw	r24, 0x01	; 1
     fa0:	a1 09       	sbc	r26, r1
     fa2:	b1 09       	sbc	r27, r1
     fa4:	80 b9       	out	0x00, r24	; 0
     fa6:	89 2f       	mov	r24, r25
     fa8:	9a 2f       	mov	r25, r26
     faa:	ab 2f       	mov	r26, r27
     fac:	bb 27       	eor	r27, r27
     fae:	a7 fd       	sbrc	r26, 7
     fb0:	ba 95       	dec	r27
     fb2:	8c bf       	out	0x3c, r24	; 60
     fb4:	82 e0       	ldi	r24, 0x02	; 2
     fb6:	82 b9       	out	0x02, r24	; 2
     fb8:	88 ed       	ldi	r24, 0xD8	; 216
     fba:	81 b9       	out	0x01, r24	; 1
     fbc:	86 e8       	ldi	r24, 0x86	; 134
     fbe:	8c bf       	out	0x3c, r24	; 60
     fc0:	08 95       	ret

00000fc2 <usart_1_ensure_write>:
     fc2:	cf 93       	push	r28
     fc4:	cf b7       	in	r28, 0x3f	; 63
     fc6:	f8 94       	cli
     fc8:	80 91 26 02 	lds	r24, 0x0226	; 0x800226 <usarts+0xe>
     fcc:	90 91 27 02 	lds	r25, 0x0227	; 0x800227 <usarts+0xf>
     fd0:	0e 94 d9 04 	call	0x9b2	; 0x9b2 <buffer_is_empty>
     fd4:	81 11       	cpse	r24, r1
     fd6:	0b c0       	rjmp	.+22     	; 0xfee <usart_1_ensure_write+0x2c>
     fd8:	15 9b       	sbis	0x02, 5	; 2
     fda:	07 c0       	rjmp	.+14     	; 0xfea <usart_1_ensure_write+0x28>
     fdc:	80 91 26 02 	lds	r24, 0x0226	; 0x800226 <usarts+0xe>
     fe0:	90 91 27 02 	lds	r25, 0x0227	; 0x800227 <usarts+0xf>
     fe4:	0e 94 8d 04 	call	0x91a	; 0x91a <buffer_read>
     fe8:	83 b9       	out	0x03, r24	; 3
     fea:	cf bf       	out	0x3f, r28	; 63
     fec:	01 c0       	rjmp	.+2      	; 0xff0 <usart_1_ensure_write+0x2e>
     fee:	cf bf       	out	0x3f, r28	; 63
     ff0:	cf 91       	pop	r28
     ff2:	08 95       	ret

00000ff4 <usart_0_ensure_write>:
     ff4:	cf 93       	push	r28
     ff6:	cf b7       	in	r28, 0x3f	; 63
     ff8:	f8 94       	cli
     ffa:	80 91 1c 02 	lds	r24, 0x021C	; 0x80021c <usarts+0x4>
     ffe:	90 91 1d 02 	lds	r25, 0x021D	; 0x80021d <usarts+0x5>
    1002:	0e 94 d9 04 	call	0x9b2	; 0x9b2 <buffer_is_empty>
    1006:	81 11       	cpse	r24, r1
    1008:	0b c0       	rjmp	.+22     	; 0x1020 <usart_0_ensure_write+0x2c>
    100a:	5d 9b       	sbis	0x0b, 5	; 11
    100c:	07 c0       	rjmp	.+14     	; 0x101c <usart_0_ensure_write+0x28>
    100e:	80 91 1c 02 	lds	r24, 0x021C	; 0x80021c <usarts+0x4>
    1012:	90 91 1d 02 	lds	r25, 0x021D	; 0x80021d <usarts+0x5>
    1016:	0e 94 8d 04 	call	0x91a	; 0x91a <buffer_read>
    101a:	8c b9       	out	0x0c, r24	; 12
    101c:	cf bf       	out	0x3f, r28	; 63
    101e:	01 c0       	rjmp	.+2      	; 0x1022 <usart_0_ensure_write+0x2e>
    1020:	cf bf       	out	0x3f, r28	; 63
    1022:	cf 91       	pop	r28
    1024:	08 95       	ret

00001026 <usart_create>:
    1026:	9f 92       	push	r9
    1028:	af 92       	push	r10
    102a:	bf 92       	push	r11
    102c:	cf 92       	push	r12
    102e:	df 92       	push	r13
    1030:	ef 92       	push	r14
    1032:	ff 92       	push	r15
    1034:	0f 93       	push	r16
    1036:	1f 93       	push	r17
    1038:	cf 93       	push	r28
    103a:	df 93       	push	r29
    103c:	98 2e       	mov	r9, r24
    103e:	6a 01       	movw	r12, r20
    1040:	7b 01       	movw	r14, r22
    1042:	81 e0       	ldi	r24, 0x01	; 1
    1044:	89 15       	cp	r24, r9
    1046:	08 f4       	brcc	.+2      	; 0x104a <usart_create+0x24>
    1048:	80 e0       	ldi	r24, 0x00	; 0
    104a:	61 e0       	ldi	r22, 0x01	; 1
    104c:	0e 94 d4 00 	call	0x1a8	; 0x1a8 <assert>
    1050:	c9 2d       	mov	r28, r9
    1052:	d0 e0       	ldi	r29, 0x00	; 0
    1054:	8e 01       	movw	r16, r28
    1056:	00 0f       	add	r16, r16
    1058:	11 1f       	adc	r17, r17
    105a:	ce 01       	movw	r24, r28
    105c:	88 0f       	add	r24, r24
    105e:	99 1f       	adc	r25, r25
    1060:	88 0f       	add	r24, r24
    1062:	99 1f       	adc	r25, r25
    1064:	88 0f       	add	r24, r24
    1066:	99 1f       	adc	r25, r25
    1068:	08 0f       	add	r16, r24
    106a:	19 1f       	adc	r17, r25
    106c:	08 5e       	subi	r16, 0xE8	; 232
    106e:	1d 4f       	sbci	r17, 0xFD	; 253
    1070:	f8 01       	movw	r30, r16
    1072:	90 81       	ld	r25, Z
    1074:	62 e0       	ldi	r22, 0x02	; 2
    1076:	81 e0       	ldi	r24, 0x01	; 1
    1078:	89 27       	eor	r24, r25
    107a:	0e 94 d4 00 	call	0x1a8	; 0x1a8 <assert>
    107e:	99 20       	and	r9, r9
    1080:	21 f0       	breq	.+8      	; 0x108a <usart_create+0x64>
    1082:	f1 e0       	ldi	r31, 0x01	; 1
    1084:	9f 16       	cp	r9, r31
    1086:	f1 f0       	breq	.+60     	; 0x10c4 <usart_create+0x9e>
    1088:	39 c0       	rjmp	.+114    	; 0x10fc <usart_create+0xd6>
    108a:	80 e0       	ldi	r24, 0x00	; 0
    108c:	0e 94 17 04 	call	0x82e	; 0x82e <buffer_create>
    1090:	9e 01       	movw	r18, r28
    1092:	22 0f       	add	r18, r18
    1094:	33 1f       	adc	r19, r19
    1096:	22 0f       	add	r18, r18
    1098:	33 1f       	adc	r19, r19
    109a:	22 0f       	add	r18, r18
    109c:	33 1f       	adc	r19, r19
    109e:	5e 01       	movw	r10, r28
    10a0:	aa 0c       	add	r10, r10
    10a2:	bb 1c       	adc	r11, r11
    10a4:	2a 0d       	add	r18, r10
    10a6:	3b 1d       	adc	r19, r11
    10a8:	a9 01       	movw	r20, r18
    10aa:	48 5e       	subi	r20, 0xE8	; 232
    10ac:	5d 4f       	sbci	r21, 0xFD	; 253
    10ae:	5a 01       	movw	r10, r20
    10b0:	fa 01       	movw	r30, r20
    10b2:	93 83       	std	Z+3, r25	; 0x03
    10b4:	82 83       	std	Z+2, r24	; 0x02
    10b6:	81 e0       	ldi	r24, 0x01	; 1
    10b8:	0e 94 17 04 	call	0x82e	; 0x82e <buffer_create>
    10bc:	f5 01       	movw	r30, r10
    10be:	95 83       	std	Z+5, r25	; 0x05
    10c0:	84 83       	std	Z+4, r24	; 0x04
    10c2:	1c c0       	rjmp	.+56     	; 0x10fc <usart_create+0xd6>
    10c4:	82 e0       	ldi	r24, 0x02	; 2
    10c6:	0e 94 17 04 	call	0x82e	; 0x82e <buffer_create>
    10ca:	9e 01       	movw	r18, r28
    10cc:	22 0f       	add	r18, r18
    10ce:	33 1f       	adc	r19, r19
    10d0:	22 0f       	add	r18, r18
    10d2:	33 1f       	adc	r19, r19
    10d4:	22 0f       	add	r18, r18
    10d6:	33 1f       	adc	r19, r19
    10d8:	5e 01       	movw	r10, r28
    10da:	aa 0c       	add	r10, r10
    10dc:	bb 1c       	adc	r11, r11
    10de:	2a 0d       	add	r18, r10
    10e0:	3b 1d       	adc	r19, r11
    10e2:	a9 01       	movw	r20, r18
    10e4:	48 5e       	subi	r20, 0xE8	; 232
    10e6:	5d 4f       	sbci	r21, 0xFD	; 253
    10e8:	5a 01       	movw	r10, r20
    10ea:	fa 01       	movw	r30, r20
    10ec:	93 83       	std	Z+3, r25	; 0x03
    10ee:	82 83       	std	Z+2, r24	; 0x02
    10f0:	83 e0       	ldi	r24, 0x03	; 3
    10f2:	0e 94 17 04 	call	0x82e	; 0x82e <buffer_create>
    10f6:	f5 01       	movw	r30, r10
    10f8:	95 83       	std	Z+5, r25	; 0x05
    10fa:	84 83       	std	Z+4, r24	; 0x04
    10fc:	ce 01       	movw	r24, r28
    10fe:	88 0f       	add	r24, r24
    1100:	99 1f       	adc	r25, r25
    1102:	cc 0f       	add	r28, r28
    1104:	dd 1f       	adc	r29, r29
    1106:	cc 0f       	add	r28, r28
    1108:	dd 1f       	adc	r29, r29
    110a:	cc 0f       	add	r28, r28
    110c:	dd 1f       	adc	r29, r29
    110e:	c8 0f       	add	r28, r24
    1110:	d9 1f       	adc	r29, r25
    1112:	c8 5e       	subi	r28, 0xE8	; 232
    1114:	dd 4f       	sbci	r29, 0xFD	; 253
    1116:	99 82       	std	Y+1, r9	; 0x01
    1118:	ee 81       	ldd	r30, Y+6	; 0x06
    111a:	ff 81       	ldd	r31, Y+7	; 0x07
    111c:	c7 01       	movw	r24, r14
    111e:	b6 01       	movw	r22, r12
    1120:	09 95       	icall
    1122:	81 e0       	ldi	r24, 0x01	; 1
    1124:	88 83       	st	Y, r24
    1126:	c8 01       	movw	r24, r16
    1128:	df 91       	pop	r29
    112a:	cf 91       	pop	r28
    112c:	1f 91       	pop	r17
    112e:	0f 91       	pop	r16
    1130:	ff 90       	pop	r15
    1132:	ef 90       	pop	r14
    1134:	df 90       	pop	r13
    1136:	cf 90       	pop	r12
    1138:	bf 90       	pop	r11
    113a:	af 90       	pop	r10
    113c:	9f 90       	pop	r9
    113e:	08 95       	ret

00001140 <usart_reset>:
    1140:	1f 93       	push	r17
    1142:	cf 93       	push	r28
    1144:	df 93       	push	r29
    1146:	ec 01       	movw	r28, r24
    1148:	1f b7       	in	r17, 0x3f	; 63
    114a:	f8 94       	cli
    114c:	8c 81       	ldd	r24, Y+4	; 0x04
    114e:	9d 81       	ldd	r25, Y+5	; 0x05
    1150:	0e 94 d3 04 	call	0x9a6	; 0x9a6 <buffer_clear>
    1154:	8a 81       	ldd	r24, Y+2	; 0x02
    1156:	9b 81       	ldd	r25, Y+3	; 0x03
    1158:	0e 94 d3 04 	call	0x9a6	; 0x9a6 <buffer_clear>
    115c:	1f bf       	out	0x3f, r17	; 63
    115e:	df 91       	pop	r29
    1160:	cf 91       	pop	r28
    1162:	1f 91       	pop	r17
    1164:	08 95       	ret

00001166 <usart_write>:
    1166:	cf 92       	push	r12
    1168:	df 92       	push	r13
    116a:	ef 92       	push	r14
    116c:	ff 92       	push	r15
    116e:	1f 93       	push	r17
    1170:	cf 93       	push	r28
    1172:	df 93       	push	r29
    1174:	ec 01       	movw	r28, r24
    1176:	6b 01       	movw	r12, r22
    1178:	7a 01       	movw	r14, r20
    117a:	81 e0       	ldi	r24, 0x01	; 1
    117c:	45 2b       	or	r20, r21
    117e:	09 f4       	brne	.+2      	; 0x1182 <usart_write+0x1c>
    1180:	80 e0       	ldi	r24, 0x00	; 0
    1182:	63 e0       	ldi	r22, 0x03	; 3
    1184:	0e 94 d4 00 	call	0x1a8	; 0x1a8 <assert>
    1188:	1f b7       	in	r17, 0x3f	; 63
    118a:	f8 94       	cli
    118c:	a7 01       	movw	r20, r14
    118e:	b6 01       	movw	r22, r12
    1190:	8c 81       	ldd	r24, Y+4	; 0x04
    1192:	9d 81       	ldd	r25, Y+5	; 0x05
    1194:	0e 94 62 04 	call	0x8c4	; 0x8c4 <buffer_write_bytes>
    1198:	1f bf       	out	0x3f, r17	; 63
    119a:	e8 85       	ldd	r30, Y+8	; 0x08
    119c:	f9 85       	ldd	r31, Y+9	; 0x09
    119e:	09 95       	icall
    11a0:	df 91       	pop	r29
    11a2:	cf 91       	pop	r28
    11a4:	1f 91       	pop	r17
    11a6:	ff 90       	pop	r15
    11a8:	ef 90       	pop	r14
    11aa:	df 90       	pop	r13
    11ac:	cf 90       	pop	r12
    11ae:	08 95       	ret

000011b0 <usart_available_bytes>:
    11b0:	cf 93       	push	r28
    11b2:	cf b7       	in	r28, 0x3f	; 63
    11b4:	f8 94       	cli
    11b6:	fc 01       	movw	r30, r24
    11b8:	82 81       	ldd	r24, Z+2	; 0x02
    11ba:	93 81       	ldd	r25, Z+3	; 0x03
    11bc:	0e 94 50 04 	call	0x8a0	; 0x8a0 <buffer_count>
    11c0:	cf bf       	out	0x3f, r28	; 63
    11c2:	cf 91       	pop	r28
    11c4:	08 95       	ret

000011c6 <usart_read>:

void usart_read(usart_t port, void *data, size_t length)
{
    11c6:	cf 93       	push	r28
	ATOMIC_BLOCK(ATOMIC_RESTORESTATE)
    11c8:	cf b7       	in	r28, 0x3f	; 63
    return 1;
}

static __inline__ uint8_t __iCliRetVal(void)
{
    cli();
    11ca:	f8 94       	cli
	{
		buffer_read_bytes(port->rx_buffer, data, length);
    11cc:	fc 01       	movw	r30, r24
    11ce:	82 81       	ldd	r24, Z+2	; 0x02
    11d0:	93 81       	ldd	r25, Z+3	; 0x03
    11d2:	0e 94 a9 04 	call	0x952	; 0x952 <buffer_read_bytes>
    (void)__s;
}

static __inline__ void __iRestore(const  uint8_t *__s)
{
    SREG = *__s;
    11d6:	cf bf       	out	0x3f, r28	; 63
	}
}
    11d8:	cf 91       	pop	r28
    11da:	08 95       	ret

000011dc <__vector_20>:
	}
}



ISR(USART1_RXC_vect){
    11dc:	1f 92       	push	r1
    11de:	0f 92       	push	r0
    11e0:	0f b6       	in	r0, 0x3f	; 63
    11e2:	0f 92       	push	r0
    11e4:	11 24       	eor	r1, r1
    11e6:	2f 93       	push	r18
    11e8:	3f 93       	push	r19
    11ea:	4f 93       	push	r20
    11ec:	5f 93       	push	r21
    11ee:	6f 93       	push	r22
    11f0:	7f 93       	push	r23
    11f2:	8f 93       	push	r24
    11f4:	9f 93       	push	r25
    11f6:	af 93       	push	r26
    11f8:	bf 93       	push	r27
    11fa:	ef 93       	push	r30
    11fc:	ff 93       	push	r31
	if((UCSR1A & (1<<FE1)) | (UCSR1A & (1<<DOR1)) | (UCSR1A & (1<<UPE1)) ){
    11fe:	82 b1       	in	r24, 0x02	; 2
    1200:	22 b1       	in	r18, 0x02	; 2
    1202:	92 b1       	in	r25, 0x02	; 2
    1204:	38 2f       	mov	r19, r24
    1206:	30 71       	andi	r19, 0x10	; 16
    1208:	82 2f       	mov	r24, r18
    120a:	88 70       	andi	r24, 0x08	; 8
    120c:	83 2b       	or	r24, r19
    120e:	94 70       	andi	r25, 0x04	; 4
    1210:	89 2b       	or	r24, r25
    1212:	31 f0       	breq	.+12     	; 0x1220 <__vector_20+0x44>
	}
}

static void usart_1_flush(void){
	uint8_t dummy = 0;
	while(UCSR1A & (1<<RXC1)) dummy = UDR1;
    1214:	17 9b       	sbis	0x02, 7	; 2
    1216:	0b c0       	rjmp	.+22     	; 0x122e <__vector_20+0x52>
    1218:	83 b1       	in	r24, 0x03	; 3
    121a:	17 99       	sbic	0x02, 7	; 2
    121c:	fd cf       	rjmp	.-6      	; 0x1218 <__vector_20+0x3c>
    121e:	07 c0       	rjmp	.+14     	; 0x122e <__vector_20+0x52>
ISR(USART1_RXC_vect){
	if((UCSR1A & (1<<FE1)) | (UCSR1A & (1<<DOR1)) | (UCSR1A & (1<<UPE1)) ){
		usart_1_flush();
	}
	else{
		buffer_write(USART_1->rx_buffer, UDR1);
    1220:	63 b1       	in	r22, 0x03	; 3
    1222:	80 91 24 02 	lds	r24, 0x0224	; 0x800224 <usarts+0xc>
    1226:	90 91 25 02 	lds	r25, 0x0225	; 0x800225 <usarts+0xd>
    122a:	0e 94 28 04 	call	0x850	; 0x850 <buffer_write>
	}
	
}
    122e:	ff 91       	pop	r31
    1230:	ef 91       	pop	r30
    1232:	bf 91       	pop	r27
    1234:	af 91       	pop	r26
    1236:	9f 91       	pop	r25
    1238:	8f 91       	pop	r24
    123a:	7f 91       	pop	r23
    123c:	6f 91       	pop	r22
    123e:	5f 91       	pop	r21
    1240:	4f 91       	pop	r20
    1242:	3f 91       	pop	r19
    1244:	2f 91       	pop	r18
    1246:	0f 90       	pop	r0
    1248:	0f be       	out	0x3f, r0	; 63
    124a:	0f 90       	pop	r0
    124c:	1f 90       	pop	r1
    124e:	18 95       	reti

00001250 <__vector_24>:

ISR(USART1_TXC_vect){
    1250:	1f 92       	push	r1
    1252:	0f 92       	push	r0
    1254:	0f b6       	in	r0, 0x3f	; 63
    1256:	0f 92       	push	r0
    1258:	11 24       	eor	r1, r1
    125a:	2f 93       	push	r18
    125c:	3f 93       	push	r19
    125e:	4f 93       	push	r20
    1260:	5f 93       	push	r21
    1262:	6f 93       	push	r22
    1264:	7f 93       	push	r23
    1266:	8f 93       	push	r24
    1268:	9f 93       	push	r25
    126a:	af 93       	push	r26
    126c:	bf 93       	push	r27
    126e:	ef 93       	push	r30
    1270:	ff 93       	push	r31
	if(!buffer_is_empty(USART_1->tx_buffer))
    1272:	80 91 26 02 	lds	r24, 0x0226	; 0x800226 <usarts+0xe>
    1276:	90 91 27 02 	lds	r25, 0x0227	; 0x800227 <usarts+0xf>
    127a:	0e 94 d9 04 	call	0x9b2	; 0x9b2 <buffer_is_empty>
    127e:	81 11       	cpse	r24, r1
    1280:	07 c0       	rjmp	.+14     	; 0x1290 <__vector_24+0x40>
	{
		UDR1 = buffer_read(USART_1->tx_buffer);
    1282:	80 91 26 02 	lds	r24, 0x0226	; 0x800226 <usarts+0xe>
    1286:	90 91 27 02 	lds	r25, 0x0227	; 0x800227 <usarts+0xf>
    128a:	0e 94 8d 04 	call	0x91a	; 0x91a <buffer_read>
    128e:	83 b9       	out	0x03, r24	; 3
	}
}
    1290:	ff 91       	pop	r31
    1292:	ef 91       	pop	r30
    1294:	bf 91       	pop	r27
    1296:	af 91       	pop	r26
    1298:	9f 91       	pop	r25
    129a:	8f 91       	pop	r24
    129c:	7f 91       	pop	r23
    129e:	6f 91       	pop	r22
    12a0:	5f 91       	pop	r21
    12a2:	4f 91       	pop	r20
    12a4:	3f 91       	pop	r19
    12a6:	2f 91       	pop	r18
    12a8:	0f 90       	pop	r0
    12aa:	0f be       	out	0x3f, r0	; 63
    12ac:	0f 90       	pop	r0
    12ae:	1f 90       	pop	r1
    12b0:	18 95       	reti

000012b2 <__vector_19>:

ISR(USART0_RXC_vect){
    12b2:	1f 92       	push	r1
    12b4:	0f 92       	push	r0
    12b6:	0f b6       	in	r0, 0x3f	; 63
    12b8:	0f 92       	push	r0
    12ba:	11 24       	eor	r1, r1
    12bc:	2f 93       	push	r18
    12be:	3f 93       	push	r19
    12c0:	4f 93       	push	r20
    12c2:	5f 93       	push	r21
    12c4:	6f 93       	push	r22
    12c6:	7f 93       	push	r23
    12c8:	8f 93       	push	r24
    12ca:	9f 93       	push	r25
    12cc:	af 93       	push	r26
    12ce:	bf 93       	push	r27
    12d0:	ef 93       	push	r30
    12d2:	ff 93       	push	r31
	if((UCSR0A & (1<<FE0)) | (UCSR0A & (1<<DOR0)) | (UCSR0A & (1<<UPE0)) ){
    12d4:	8b b1       	in	r24, 0x0b	; 11
    12d6:	2b b1       	in	r18, 0x0b	; 11
    12d8:	9b b1       	in	r25, 0x0b	; 11
    12da:	38 2f       	mov	r19, r24
    12dc:	30 71       	andi	r19, 0x10	; 16
    12de:	82 2f       	mov	r24, r18
    12e0:	88 70       	andi	r24, 0x08	; 8
    12e2:	83 2b       	or	r24, r19
    12e4:	94 70       	andi	r25, 0x04	; 4
    12e6:	89 2b       	or	r24, r25
    12e8:	31 f0       	breq	.+12     	; 0x12f6 <__vector_19+0x44>
	while(UCSR1A & (1<<RXC1)) dummy = UDR1;
}

static void usart_0_flush(void){
	uint8_t dummy;
	while(UCSR0A & (1<<RXC0)) dummy = UDR0;
    12ea:	5f 9b       	sbis	0x0b, 7	; 11
    12ec:	0b c0       	rjmp	.+22     	; 0x1304 <__vector_19+0x52>
    12ee:	8c b1       	in	r24, 0x0c	; 12
    12f0:	5f 99       	sbic	0x0b, 7	; 11
    12f2:	fd cf       	rjmp	.-6      	; 0x12ee <__vector_19+0x3c>
    12f4:	07 c0       	rjmp	.+14     	; 0x1304 <__vector_19+0x52>
ISR(USART0_RXC_vect){
	if((UCSR0A & (1<<FE0)) | (UCSR0A & (1<<DOR0)) | (UCSR0A & (1<<UPE0)) ){
		usart_0_flush();
		}
		else{
		buffer_write(USART_0->rx_buffer, UDR0);
    12f6:	6c b1       	in	r22, 0x0c	; 12
    12f8:	80 91 1a 02 	lds	r24, 0x021A	; 0x80021a <usarts+0x2>
    12fc:	90 91 1b 02 	lds	r25, 0x021B	; 0x80021b <usarts+0x3>
    1300:	0e 94 28 04 	call	0x850	; 0x850 <buffer_write>
	}
}
    1304:	ff 91       	pop	r31
    1306:	ef 91       	pop	r30
    1308:	bf 91       	pop	r27
    130a:	af 91       	pop	r26
    130c:	9f 91       	pop	r25
    130e:	8f 91       	pop	r24
    1310:	7f 91       	pop	r23
    1312:	6f 91       	pop	r22
    1314:	5f 91       	pop	r21
    1316:	4f 91       	pop	r20
    1318:	3f 91       	pop	r19
    131a:	2f 91       	pop	r18
    131c:	0f 90       	pop	r0
    131e:	0f be       	out	0x3f, r0	; 63
    1320:	0f 90       	pop	r0
    1322:	1f 90       	pop	r1
    1324:	18 95       	reti

00001326 <__vector_23>:

ISR(USART0_TXC_vect){
    1326:	1f 92       	push	r1
    1328:	0f 92       	push	r0
    132a:	0f b6       	in	r0, 0x3f	; 63
    132c:	0f 92       	push	r0
    132e:	11 24       	eor	r1, r1
    1330:	2f 93       	push	r18
    1332:	3f 93       	push	r19
    1334:	4f 93       	push	r20
    1336:	5f 93       	push	r21
    1338:	6f 93       	push	r22
    133a:	7f 93       	push	r23
    133c:	8f 93       	push	r24
    133e:	9f 93       	push	r25
    1340:	af 93       	push	r26
    1342:	bf 93       	push	r27
    1344:	ef 93       	push	r30
    1346:	ff 93       	push	r31

	if(!buffer_is_empty(USART_0->tx_buffer))
    1348:	80 91 1c 02 	lds	r24, 0x021C	; 0x80021c <usarts+0x4>
    134c:	90 91 1d 02 	lds	r25, 0x021D	; 0x80021d <usarts+0x5>
    1350:	0e 94 d9 04 	call	0x9b2	; 0x9b2 <buffer_is_empty>
    1354:	81 11       	cpse	r24, r1
    1356:	07 c0       	rjmp	.+14     	; 0x1366 <__vector_23+0x40>
	{
		UDR0 = buffer_read(USART_0->tx_buffer);
    1358:	80 91 1c 02 	lds	r24, 0x021C	; 0x80021c <usarts+0x4>
    135c:	90 91 1d 02 	lds	r25, 0x021D	; 0x80021d <usarts+0x5>
    1360:	0e 94 8d 04 	call	0x91a	; 0x91a <buffer_read>
    1364:	8c b9       	out	0x0c, r24	; 12
	}
}
    1366:	ff 91       	pop	r31
    1368:	ef 91       	pop	r30
    136a:	bf 91       	pop	r27
    136c:	af 91       	pop	r26
    136e:	9f 91       	pop	r25
    1370:	8f 91       	pop	r24
    1372:	7f 91       	pop	r23
    1374:	6f 91       	pop	r22
    1376:	5f 91       	pop	r21
    1378:	4f 91       	pop	r20
    137a:	3f 91       	pop	r19
    137c:	2f 91       	pop	r18
    137e:	0f 90       	pop	r0
    1380:	0f be       	out	0x3f, r0	; 63
    1382:	0f 90       	pop	r0
    1384:	1f 90       	pop	r1
    1386:	18 95       	reti

00001388 <__fixunssfsi>:
    1388:	0e 94 38 0a 	call	0x1470	; 0x1470 <__fp_splitA>
    138c:	88 f0       	brcs	.+34     	; 0x13b0 <__fixunssfsi+0x28>
    138e:	9f 57       	subi	r25, 0x7F	; 127
    1390:	98 f0       	brcs	.+38     	; 0x13b8 <__fixunssfsi+0x30>
    1392:	b9 2f       	mov	r27, r25
    1394:	99 27       	eor	r25, r25
    1396:	b7 51       	subi	r27, 0x17	; 23
    1398:	b0 f0       	brcs	.+44     	; 0x13c6 <__fixunssfsi+0x3e>
    139a:	e1 f0       	breq	.+56     	; 0x13d4 <__fixunssfsi+0x4c>
    139c:	66 0f       	add	r22, r22
    139e:	77 1f       	adc	r23, r23
    13a0:	88 1f       	adc	r24, r24
    13a2:	99 1f       	adc	r25, r25
    13a4:	1a f0       	brmi	.+6      	; 0x13ac <__fixunssfsi+0x24>
    13a6:	ba 95       	dec	r27
    13a8:	c9 f7       	brne	.-14     	; 0x139c <__fixunssfsi+0x14>
    13aa:	14 c0       	rjmp	.+40     	; 0x13d4 <__fixunssfsi+0x4c>
    13ac:	b1 30       	cpi	r27, 0x01	; 1
    13ae:	91 f0       	breq	.+36     	; 0x13d4 <__fixunssfsi+0x4c>
    13b0:	0e 94 52 0a 	call	0x14a4	; 0x14a4 <__fp_zero>
    13b4:	b1 e0       	ldi	r27, 0x01	; 1
    13b6:	08 95       	ret
    13b8:	0c 94 52 0a 	jmp	0x14a4	; 0x14a4 <__fp_zero>
    13bc:	67 2f       	mov	r22, r23
    13be:	78 2f       	mov	r23, r24
    13c0:	88 27       	eor	r24, r24
    13c2:	b8 5f       	subi	r27, 0xF8	; 248
    13c4:	39 f0       	breq	.+14     	; 0x13d4 <__fixunssfsi+0x4c>
    13c6:	b9 3f       	cpi	r27, 0xF9	; 249
    13c8:	cc f3       	brlt	.-14     	; 0x13bc <__fixunssfsi+0x34>
    13ca:	86 95       	lsr	r24
    13cc:	77 95       	ror	r23
    13ce:	67 95       	ror	r22
    13d0:	b3 95       	inc	r27
    13d2:	d9 f7       	brne	.-10     	; 0x13ca <__fixunssfsi+0x42>
    13d4:	3e f4       	brtc	.+14     	; 0x13e4 <__fixunssfsi+0x5c>
    13d6:	90 95       	com	r25
    13d8:	80 95       	com	r24
    13da:	70 95       	com	r23
    13dc:	61 95       	neg	r22
    13de:	7f 4f       	sbci	r23, 0xFF	; 255
    13e0:	8f 4f       	sbci	r24, 0xFF	; 255
    13e2:	9f 4f       	sbci	r25, 0xFF	; 255
    13e4:	08 95       	ret

000013e6 <__floatunsisf>:
    13e6:	e8 94       	clt
    13e8:	09 c0       	rjmp	.+18     	; 0x13fc <__floatsisf+0x12>

000013ea <__floatsisf>:
    13ea:	97 fb       	bst	r25, 7
    13ec:	3e f4       	brtc	.+14     	; 0x13fc <__floatsisf+0x12>
    13ee:	90 95       	com	r25
    13f0:	80 95       	com	r24
    13f2:	70 95       	com	r23
    13f4:	61 95       	neg	r22
    13f6:	7f 4f       	sbci	r23, 0xFF	; 255
    13f8:	8f 4f       	sbci	r24, 0xFF	; 255
    13fa:	9f 4f       	sbci	r25, 0xFF	; 255
    13fc:	99 23       	and	r25, r25
    13fe:	a9 f0       	breq	.+42     	; 0x142a <__floatsisf+0x40>
    1400:	f9 2f       	mov	r31, r25
    1402:	96 e9       	ldi	r25, 0x96	; 150
    1404:	bb 27       	eor	r27, r27
    1406:	93 95       	inc	r25
    1408:	f6 95       	lsr	r31
    140a:	87 95       	ror	r24
    140c:	77 95       	ror	r23
    140e:	67 95       	ror	r22
    1410:	b7 95       	ror	r27
    1412:	f1 11       	cpse	r31, r1
    1414:	f8 cf       	rjmp	.-16     	; 0x1406 <__floatsisf+0x1c>
    1416:	fa f4       	brpl	.+62     	; 0x1456 <__floatsisf+0x6c>
    1418:	bb 0f       	add	r27, r27
    141a:	11 f4       	brne	.+4      	; 0x1420 <__floatsisf+0x36>
    141c:	60 ff       	sbrs	r22, 0
    141e:	1b c0       	rjmp	.+54     	; 0x1456 <__floatsisf+0x6c>
    1420:	6f 5f       	subi	r22, 0xFF	; 255
    1422:	7f 4f       	sbci	r23, 0xFF	; 255
    1424:	8f 4f       	sbci	r24, 0xFF	; 255
    1426:	9f 4f       	sbci	r25, 0xFF	; 255
    1428:	16 c0       	rjmp	.+44     	; 0x1456 <__floatsisf+0x6c>
    142a:	88 23       	and	r24, r24
    142c:	11 f0       	breq	.+4      	; 0x1432 <__floatsisf+0x48>
    142e:	96 e9       	ldi	r25, 0x96	; 150
    1430:	11 c0       	rjmp	.+34     	; 0x1454 <__floatsisf+0x6a>
    1432:	77 23       	and	r23, r23
    1434:	21 f0       	breq	.+8      	; 0x143e <__floatsisf+0x54>
    1436:	9e e8       	ldi	r25, 0x8E	; 142
    1438:	87 2f       	mov	r24, r23
    143a:	76 2f       	mov	r23, r22
    143c:	05 c0       	rjmp	.+10     	; 0x1448 <__floatsisf+0x5e>
    143e:	66 23       	and	r22, r22
    1440:	71 f0       	breq	.+28     	; 0x145e <__floatsisf+0x74>
    1442:	96 e8       	ldi	r25, 0x86	; 134
    1444:	86 2f       	mov	r24, r22
    1446:	70 e0       	ldi	r23, 0x00	; 0
    1448:	60 e0       	ldi	r22, 0x00	; 0
    144a:	2a f0       	brmi	.+10     	; 0x1456 <__floatsisf+0x6c>
    144c:	9a 95       	dec	r25
    144e:	66 0f       	add	r22, r22
    1450:	77 1f       	adc	r23, r23
    1452:	88 1f       	adc	r24, r24
    1454:	da f7       	brpl	.-10     	; 0x144c <__floatsisf+0x62>
    1456:	88 0f       	add	r24, r24
    1458:	96 95       	lsr	r25
    145a:	87 95       	ror	r24
    145c:	97 f9       	bld	r25, 7
    145e:	08 95       	ret

00001460 <__fp_split3>:
    1460:	57 fd       	sbrc	r21, 7
    1462:	90 58       	subi	r25, 0x80	; 128
    1464:	44 0f       	add	r20, r20
    1466:	55 1f       	adc	r21, r21
    1468:	59 f0       	breq	.+22     	; 0x1480 <__fp_splitA+0x10>
    146a:	5f 3f       	cpi	r21, 0xFF	; 255
    146c:	71 f0       	breq	.+28     	; 0x148a <__fp_splitA+0x1a>
    146e:	47 95       	ror	r20

00001470 <__fp_splitA>:
    1470:	88 0f       	add	r24, r24
    1472:	97 fb       	bst	r25, 7
    1474:	99 1f       	adc	r25, r25
    1476:	61 f0       	breq	.+24     	; 0x1490 <__fp_splitA+0x20>
    1478:	9f 3f       	cpi	r25, 0xFF	; 255
    147a:	79 f0       	breq	.+30     	; 0x149a <__fp_splitA+0x2a>
    147c:	87 95       	ror	r24
    147e:	08 95       	ret
    1480:	12 16       	cp	r1, r18
    1482:	13 06       	cpc	r1, r19
    1484:	14 06       	cpc	r1, r20
    1486:	55 1f       	adc	r21, r21
    1488:	f2 cf       	rjmp	.-28     	; 0x146e <__fp_split3+0xe>
    148a:	46 95       	lsr	r20
    148c:	f1 df       	rcall	.-30     	; 0x1470 <__fp_splitA>
    148e:	08 c0       	rjmp	.+16     	; 0x14a0 <__fp_splitA+0x30>
    1490:	16 16       	cp	r1, r22
    1492:	17 06       	cpc	r1, r23
    1494:	18 06       	cpc	r1, r24
    1496:	99 1f       	adc	r25, r25
    1498:	f1 cf       	rjmp	.-30     	; 0x147c <__fp_splitA+0xc>
    149a:	86 95       	lsr	r24
    149c:	71 05       	cpc	r23, r1
    149e:	61 05       	cpc	r22, r1
    14a0:	08 94       	sec
    14a2:	08 95       	ret

000014a4 <__fp_zero>:
    14a4:	e8 94       	clt

000014a6 <__fp_szero>:
    14a6:	bb 27       	eor	r27, r27
    14a8:	66 27       	eor	r22, r22
    14aa:	77 27       	eor	r23, r23
    14ac:	cb 01       	movw	r24, r22
    14ae:	97 f9       	bld	r25, 7
    14b0:	08 95       	ret

000014b2 <__mulsf3>:
    14b2:	0e 94 6c 0a 	call	0x14d8	; 0x14d8 <__mulsf3x>
    14b6:	0c 94 dd 0a 	jmp	0x15ba	; 0x15ba <__fp_round>
    14ba:	0e 94 cf 0a 	call	0x159e	; 0x159e <__fp_pscA>
    14be:	38 f0       	brcs	.+14     	; 0x14ce <__mulsf3+0x1c>
    14c0:	0e 94 d6 0a 	call	0x15ac	; 0x15ac <__fp_pscB>
    14c4:	20 f0       	brcs	.+8      	; 0x14ce <__mulsf3+0x1c>
    14c6:	95 23       	and	r25, r21
    14c8:	11 f0       	breq	.+4      	; 0x14ce <__mulsf3+0x1c>
    14ca:	0c 94 c6 0a 	jmp	0x158c	; 0x158c <__fp_inf>
    14ce:	0c 94 cc 0a 	jmp	0x1598	; 0x1598 <__fp_nan>
    14d2:	11 24       	eor	r1, r1
    14d4:	0c 94 53 0a 	jmp	0x14a6	; 0x14a6 <__fp_szero>

000014d8 <__mulsf3x>:
    14d8:	0e 94 30 0a 	call	0x1460	; 0x1460 <__fp_split3>
    14dc:	70 f3       	brcs	.-36     	; 0x14ba <__mulsf3+0x8>

000014de <__mulsf3_pse>:
    14de:	95 9f       	mul	r25, r21
    14e0:	c1 f3       	breq	.-16     	; 0x14d2 <__mulsf3+0x20>
    14e2:	95 0f       	add	r25, r21
    14e4:	50 e0       	ldi	r21, 0x00	; 0
    14e6:	55 1f       	adc	r21, r21
    14e8:	62 9f       	mul	r22, r18
    14ea:	f0 01       	movw	r30, r0
    14ec:	72 9f       	mul	r23, r18
    14ee:	bb 27       	eor	r27, r27
    14f0:	f0 0d       	add	r31, r0
    14f2:	b1 1d       	adc	r27, r1
    14f4:	63 9f       	mul	r22, r19
    14f6:	aa 27       	eor	r26, r26
    14f8:	f0 0d       	add	r31, r0
    14fa:	b1 1d       	adc	r27, r1
    14fc:	aa 1f       	adc	r26, r26
    14fe:	64 9f       	mul	r22, r20
    1500:	66 27       	eor	r22, r22
    1502:	b0 0d       	add	r27, r0
    1504:	a1 1d       	adc	r26, r1
    1506:	66 1f       	adc	r22, r22
    1508:	82 9f       	mul	r24, r18
    150a:	22 27       	eor	r18, r18
    150c:	b0 0d       	add	r27, r0
    150e:	a1 1d       	adc	r26, r1
    1510:	62 1f       	adc	r22, r18
    1512:	73 9f       	mul	r23, r19
    1514:	b0 0d       	add	r27, r0
    1516:	a1 1d       	adc	r26, r1
    1518:	62 1f       	adc	r22, r18
    151a:	83 9f       	mul	r24, r19
    151c:	a0 0d       	add	r26, r0
    151e:	61 1d       	adc	r22, r1
    1520:	22 1f       	adc	r18, r18
    1522:	74 9f       	mul	r23, r20
    1524:	33 27       	eor	r19, r19
    1526:	a0 0d       	add	r26, r0
    1528:	61 1d       	adc	r22, r1
    152a:	23 1f       	adc	r18, r19
    152c:	84 9f       	mul	r24, r20
    152e:	60 0d       	add	r22, r0
    1530:	21 1d       	adc	r18, r1
    1532:	82 2f       	mov	r24, r18
    1534:	76 2f       	mov	r23, r22
    1536:	6a 2f       	mov	r22, r26
    1538:	11 24       	eor	r1, r1
    153a:	9f 57       	subi	r25, 0x7F	; 127
    153c:	50 40       	sbci	r21, 0x00	; 0
    153e:	9a f0       	brmi	.+38     	; 0x1566 <__mulsf3_pse+0x88>
    1540:	f1 f0       	breq	.+60     	; 0x157e <__mulsf3_pse+0xa0>
    1542:	88 23       	and	r24, r24
    1544:	4a f0       	brmi	.+18     	; 0x1558 <__mulsf3_pse+0x7a>
    1546:	ee 0f       	add	r30, r30
    1548:	ff 1f       	adc	r31, r31
    154a:	bb 1f       	adc	r27, r27
    154c:	66 1f       	adc	r22, r22
    154e:	77 1f       	adc	r23, r23
    1550:	88 1f       	adc	r24, r24
    1552:	91 50       	subi	r25, 0x01	; 1
    1554:	50 40       	sbci	r21, 0x00	; 0
    1556:	a9 f7       	brne	.-22     	; 0x1542 <__mulsf3_pse+0x64>
    1558:	9e 3f       	cpi	r25, 0xFE	; 254
    155a:	51 05       	cpc	r21, r1
    155c:	80 f0       	brcs	.+32     	; 0x157e <__mulsf3_pse+0xa0>
    155e:	0c 94 c6 0a 	jmp	0x158c	; 0x158c <__fp_inf>
    1562:	0c 94 53 0a 	jmp	0x14a6	; 0x14a6 <__fp_szero>
    1566:	5f 3f       	cpi	r21, 0xFF	; 255
    1568:	e4 f3       	brlt	.-8      	; 0x1562 <__mulsf3_pse+0x84>
    156a:	98 3e       	cpi	r25, 0xE8	; 232
    156c:	d4 f3       	brlt	.-12     	; 0x1562 <__mulsf3_pse+0x84>
    156e:	86 95       	lsr	r24
    1570:	77 95       	ror	r23
    1572:	67 95       	ror	r22
    1574:	b7 95       	ror	r27
    1576:	f7 95       	ror	r31
    1578:	e7 95       	ror	r30
    157a:	9f 5f       	subi	r25, 0xFF	; 255
    157c:	c1 f7       	brne	.-16     	; 0x156e <__mulsf3_pse+0x90>
    157e:	fe 2b       	or	r31, r30
    1580:	88 0f       	add	r24, r24
    1582:	91 1d       	adc	r25, r1
    1584:	96 95       	lsr	r25
    1586:	87 95       	ror	r24
    1588:	97 f9       	bld	r25, 7
    158a:	08 95       	ret

0000158c <__fp_inf>:
    158c:	97 f9       	bld	r25, 7
    158e:	9f 67       	ori	r25, 0x7F	; 127
    1590:	80 e8       	ldi	r24, 0x80	; 128
    1592:	70 e0       	ldi	r23, 0x00	; 0
    1594:	60 e0       	ldi	r22, 0x00	; 0
    1596:	08 95       	ret

00001598 <__fp_nan>:
    1598:	9f ef       	ldi	r25, 0xFF	; 255
    159a:	80 ec       	ldi	r24, 0xC0	; 192
    159c:	08 95       	ret

0000159e <__fp_pscA>:
    159e:	00 24       	eor	r0, r0
    15a0:	0a 94       	dec	r0
    15a2:	16 16       	cp	r1, r22
    15a4:	17 06       	cpc	r1, r23
    15a6:	18 06       	cpc	r1, r24
    15a8:	09 06       	cpc	r0, r25
    15aa:	08 95       	ret

000015ac <__fp_pscB>:
    15ac:	00 24       	eor	r0, r0
    15ae:	0a 94       	dec	r0
    15b0:	12 16       	cp	r1, r18
    15b2:	13 06       	cpc	r1, r19
    15b4:	14 06       	cpc	r1, r20
    15b6:	05 06       	cpc	r0, r21
    15b8:	08 95       	ret

000015ba <__fp_round>:
    15ba:	09 2e       	mov	r0, r25
    15bc:	03 94       	inc	r0
    15be:	00 0c       	add	r0, r0
    15c0:	11 f4       	brne	.+4      	; 0x15c6 <__fp_round+0xc>
    15c2:	88 23       	and	r24, r24
    15c4:	52 f0       	brmi	.+20     	; 0x15da <__fp_round+0x20>
    15c6:	bb 0f       	add	r27, r27
    15c8:	40 f4       	brcc	.+16     	; 0x15da <__fp_round+0x20>
    15ca:	bf 2b       	or	r27, r31
    15cc:	11 f4       	brne	.+4      	; 0x15d2 <__fp_round+0x18>
    15ce:	60 ff       	sbrs	r22, 0
    15d0:	04 c0       	rjmp	.+8      	; 0x15da <__fp_round+0x20>
    15d2:	6f 5f       	subi	r22, 0xFF	; 255
    15d4:	7f 4f       	sbci	r23, 0xFF	; 255
    15d6:	8f 4f       	sbci	r24, 0xFF	; 255
    15d8:	9f 4f       	sbci	r25, 0xFF	; 255
    15da:	08 95       	ret

000015dc <__udivmodhi4>:
    15dc:	aa 1b       	sub	r26, r26
    15de:	bb 1b       	sub	r27, r27
    15e0:	51 e1       	ldi	r21, 0x11	; 17
    15e2:	07 c0       	rjmp	.+14     	; 0x15f2 <__udivmodhi4_ep>

000015e4 <__udivmodhi4_loop>:
    15e4:	aa 1f       	adc	r26, r26
    15e6:	bb 1f       	adc	r27, r27
    15e8:	a6 17       	cp	r26, r22
    15ea:	b7 07       	cpc	r27, r23
    15ec:	10 f0       	brcs	.+4      	; 0x15f2 <__udivmodhi4_ep>
    15ee:	a6 1b       	sub	r26, r22
    15f0:	b7 0b       	sbc	r27, r23

000015f2 <__udivmodhi4_ep>:
    15f2:	88 1f       	adc	r24, r24
    15f4:	99 1f       	adc	r25, r25
    15f6:	5a 95       	dec	r21
    15f8:	a9 f7       	brne	.-22     	; 0x15e4 <__udivmodhi4_loop>
    15fa:	80 95       	com	r24
    15fc:	90 95       	com	r25
    15fe:	bc 01       	movw	r22, r24
    1600:	cd 01       	movw	r24, r26
    1602:	08 95       	ret

00001604 <__udivmodsi4>:
    1604:	a1 e2       	ldi	r26, 0x21	; 33
    1606:	1a 2e       	mov	r1, r26
    1608:	aa 1b       	sub	r26, r26
    160a:	bb 1b       	sub	r27, r27
    160c:	fd 01       	movw	r30, r26
    160e:	0d c0       	rjmp	.+26     	; 0x162a <__udivmodsi4_ep>

00001610 <__udivmodsi4_loop>:
    1610:	aa 1f       	adc	r26, r26
    1612:	bb 1f       	adc	r27, r27
    1614:	ee 1f       	adc	r30, r30
    1616:	ff 1f       	adc	r31, r31
    1618:	a2 17       	cp	r26, r18
    161a:	b3 07       	cpc	r27, r19
    161c:	e4 07       	cpc	r30, r20
    161e:	f5 07       	cpc	r31, r21
    1620:	20 f0       	brcs	.+8      	; 0x162a <__udivmodsi4_ep>
    1622:	a2 1b       	sub	r26, r18
    1624:	b3 0b       	sbc	r27, r19
    1626:	e4 0b       	sbc	r30, r20
    1628:	f5 0b       	sbc	r31, r21

0000162a <__udivmodsi4_ep>:
    162a:	66 1f       	adc	r22, r22
    162c:	77 1f       	adc	r23, r23
    162e:	88 1f       	adc	r24, r24
    1630:	99 1f       	adc	r25, r25
    1632:	1a 94       	dec	r1
    1634:	69 f7       	brne	.-38     	; 0x1610 <__udivmodsi4_loop>
    1636:	60 95       	com	r22
    1638:	70 95       	com	r23
    163a:	80 95       	com	r24
    163c:	90 95       	com	r25
    163e:	9b 01       	movw	r18, r22
    1640:	ac 01       	movw	r20, r24
    1642:	bd 01       	movw	r22, r26
    1644:	cf 01       	movw	r24, r30
    1646:	08 95       	ret

00001648 <__ashldi3>:
    1648:	0f 93       	push	r16
    164a:	08 30       	cpi	r16, 0x08	; 8
    164c:	90 f0       	brcs	.+36     	; 0x1672 <__ashldi3+0x2a>
    164e:	98 2f       	mov	r25, r24
    1650:	87 2f       	mov	r24, r23
    1652:	76 2f       	mov	r23, r22
    1654:	65 2f       	mov	r22, r21
    1656:	54 2f       	mov	r21, r20
    1658:	43 2f       	mov	r20, r19
    165a:	32 2f       	mov	r19, r18
    165c:	22 27       	eor	r18, r18
    165e:	08 50       	subi	r16, 0x08	; 8
    1660:	f4 cf       	rjmp	.-24     	; 0x164a <__ashldi3+0x2>
    1662:	22 0f       	add	r18, r18
    1664:	33 1f       	adc	r19, r19
    1666:	44 1f       	adc	r20, r20
    1668:	55 1f       	adc	r21, r21
    166a:	66 1f       	adc	r22, r22
    166c:	77 1f       	adc	r23, r23
    166e:	88 1f       	adc	r24, r24
    1670:	99 1f       	adc	r25, r25
    1672:	0a 95       	dec	r16
    1674:	b2 f7       	brpl	.-20     	; 0x1662 <__ashldi3+0x1a>
    1676:	0f 91       	pop	r16
    1678:	08 95       	ret

0000167a <__ashrdi3>:
    167a:	97 fb       	bst	r25, 7
    167c:	10 f8       	bld	r1, 0

0000167e <__lshrdi3>:
    167e:	16 94       	lsr	r1
    1680:	00 08       	sbc	r0, r0
    1682:	0f 93       	push	r16
    1684:	08 30       	cpi	r16, 0x08	; 8
    1686:	98 f0       	brcs	.+38     	; 0x16ae <__lshrdi3+0x30>
    1688:	08 50       	subi	r16, 0x08	; 8
    168a:	23 2f       	mov	r18, r19
    168c:	34 2f       	mov	r19, r20
    168e:	45 2f       	mov	r20, r21
    1690:	56 2f       	mov	r21, r22
    1692:	67 2f       	mov	r22, r23
    1694:	78 2f       	mov	r23, r24
    1696:	89 2f       	mov	r24, r25
    1698:	90 2d       	mov	r25, r0
    169a:	f4 cf       	rjmp	.-24     	; 0x1684 <__lshrdi3+0x6>
    169c:	05 94       	asr	r0
    169e:	97 95       	ror	r25
    16a0:	87 95       	ror	r24
    16a2:	77 95       	ror	r23
    16a4:	67 95       	ror	r22
    16a6:	57 95       	ror	r21
    16a8:	47 95       	ror	r20
    16aa:	37 95       	ror	r19
    16ac:	27 95       	ror	r18
    16ae:	0a 95       	dec	r16
    16b0:	aa f7       	brpl	.-22     	; 0x169c <__lshrdi3+0x1e>
    16b2:	0f 91       	pop	r16
    16b4:	08 95       	ret

000016b6 <sprintf>:
    16b6:	ae e0       	ldi	r26, 0x0E	; 14
    16b8:	b0 e0       	ldi	r27, 0x00	; 0
    16ba:	e1 e6       	ldi	r30, 0x61	; 97
    16bc:	fb e0       	ldi	r31, 0x0B	; 11
    16be:	0c 94 1c 0e 	jmp	0x1c38	; 0x1c38 <__prologue_saves__+0x1c>
    16c2:	0d 89       	ldd	r16, Y+21	; 0x15
    16c4:	1e 89       	ldd	r17, Y+22	; 0x16
    16c6:	86 e0       	ldi	r24, 0x06	; 6
    16c8:	8c 83       	std	Y+4, r24	; 0x04
    16ca:	1a 83       	std	Y+2, r17	; 0x02
    16cc:	09 83       	std	Y+1, r16	; 0x01
    16ce:	8f ef       	ldi	r24, 0xFF	; 255
    16d0:	9f e7       	ldi	r25, 0x7F	; 127
    16d2:	9e 83       	std	Y+6, r25	; 0x06
    16d4:	8d 83       	std	Y+5, r24	; 0x05
    16d6:	ae 01       	movw	r20, r28
    16d8:	47 5e       	subi	r20, 0xE7	; 231
    16da:	5f 4f       	sbci	r21, 0xFF	; 255
    16dc:	6f 89       	ldd	r22, Y+23	; 0x17
    16de:	78 8d       	ldd	r23, Y+24	; 0x18
    16e0:	ce 01       	movw	r24, r28
    16e2:	01 96       	adiw	r24, 0x01	; 1
    16e4:	0e 94 7d 0b 	call	0x16fa	; 0x16fa <vfprintf>
    16e8:	ef 81       	ldd	r30, Y+7	; 0x07
    16ea:	f8 85       	ldd	r31, Y+8	; 0x08
    16ec:	e0 0f       	add	r30, r16
    16ee:	f1 1f       	adc	r31, r17
    16f0:	10 82       	st	Z, r1
    16f2:	2e 96       	adiw	r28, 0x0e	; 14
    16f4:	e4 e0       	ldi	r30, 0x04	; 4
    16f6:	0c 94 38 0e 	jmp	0x1c70	; 0x1c70 <__epilogue_restores__+0x1c>

000016fa <vfprintf>:
    16fa:	ab e0       	ldi	r26, 0x0B	; 11
    16fc:	b0 e0       	ldi	r27, 0x00	; 0
    16fe:	e3 e8       	ldi	r30, 0x83	; 131
    1700:	fb e0       	ldi	r31, 0x0B	; 11
    1702:	0c 94 0e 0e 	jmp	0x1c1c	; 0x1c1c <__prologue_saves__>
    1706:	6c 01       	movw	r12, r24
    1708:	7b 01       	movw	r14, r22
    170a:	8a 01       	movw	r16, r20
    170c:	fc 01       	movw	r30, r24
    170e:	17 82       	std	Z+7, r1	; 0x07
    1710:	16 82       	std	Z+6, r1	; 0x06
    1712:	83 81       	ldd	r24, Z+3	; 0x03
    1714:	81 ff       	sbrs	r24, 1
    1716:	cc c1       	rjmp	.+920    	; 0x1ab0 <vfprintf+0x3b6>
    1718:	ce 01       	movw	r24, r28
    171a:	01 96       	adiw	r24, 0x01	; 1
    171c:	3c 01       	movw	r6, r24
    171e:	f6 01       	movw	r30, r12
    1720:	93 81       	ldd	r25, Z+3	; 0x03
    1722:	f7 01       	movw	r30, r14
    1724:	93 fd       	sbrc	r25, 3
    1726:	85 91       	lpm	r24, Z+
    1728:	93 ff       	sbrs	r25, 3
    172a:	81 91       	ld	r24, Z+
    172c:	7f 01       	movw	r14, r30
    172e:	88 23       	and	r24, r24
    1730:	09 f4       	brne	.+2      	; 0x1734 <vfprintf+0x3a>
    1732:	ba c1       	rjmp	.+884    	; 0x1aa8 <vfprintf+0x3ae>
    1734:	85 32       	cpi	r24, 0x25	; 37
    1736:	39 f4       	brne	.+14     	; 0x1746 <vfprintf+0x4c>
    1738:	93 fd       	sbrc	r25, 3
    173a:	85 91       	lpm	r24, Z+
    173c:	93 ff       	sbrs	r25, 3
    173e:	81 91       	ld	r24, Z+
    1740:	7f 01       	movw	r14, r30
    1742:	85 32       	cpi	r24, 0x25	; 37
    1744:	29 f4       	brne	.+10     	; 0x1750 <vfprintf+0x56>
    1746:	b6 01       	movw	r22, r12
    1748:	90 e0       	ldi	r25, 0x00	; 0
    174a:	0e 94 74 0d 	call	0x1ae8	; 0x1ae8 <fputc>
    174e:	e7 cf       	rjmp	.-50     	; 0x171e <vfprintf+0x24>
    1750:	91 2c       	mov	r9, r1
    1752:	21 2c       	mov	r2, r1
    1754:	31 2c       	mov	r3, r1
    1756:	ff e1       	ldi	r31, 0x1F	; 31
    1758:	f3 15       	cp	r31, r3
    175a:	d8 f0       	brcs	.+54     	; 0x1792 <vfprintf+0x98>
    175c:	8b 32       	cpi	r24, 0x2B	; 43
    175e:	79 f0       	breq	.+30     	; 0x177e <vfprintf+0x84>
    1760:	38 f4       	brcc	.+14     	; 0x1770 <vfprintf+0x76>
    1762:	80 32       	cpi	r24, 0x20	; 32
    1764:	79 f0       	breq	.+30     	; 0x1784 <vfprintf+0x8a>
    1766:	83 32       	cpi	r24, 0x23	; 35
    1768:	a1 f4       	brne	.+40     	; 0x1792 <vfprintf+0x98>
    176a:	23 2d       	mov	r18, r3
    176c:	20 61       	ori	r18, 0x10	; 16
    176e:	1d c0       	rjmp	.+58     	; 0x17aa <vfprintf+0xb0>
    1770:	8d 32       	cpi	r24, 0x2D	; 45
    1772:	61 f0       	breq	.+24     	; 0x178c <vfprintf+0x92>
    1774:	80 33       	cpi	r24, 0x30	; 48
    1776:	69 f4       	brne	.+26     	; 0x1792 <vfprintf+0x98>
    1778:	23 2d       	mov	r18, r3
    177a:	21 60       	ori	r18, 0x01	; 1
    177c:	16 c0       	rjmp	.+44     	; 0x17aa <vfprintf+0xb0>
    177e:	83 2d       	mov	r24, r3
    1780:	82 60       	ori	r24, 0x02	; 2
    1782:	38 2e       	mov	r3, r24
    1784:	e3 2d       	mov	r30, r3
    1786:	e4 60       	ori	r30, 0x04	; 4
    1788:	3e 2e       	mov	r3, r30
    178a:	2a c0       	rjmp	.+84     	; 0x17e0 <vfprintf+0xe6>
    178c:	f3 2d       	mov	r31, r3
    178e:	f8 60       	ori	r31, 0x08	; 8
    1790:	1d c0       	rjmp	.+58     	; 0x17cc <vfprintf+0xd2>
    1792:	37 fc       	sbrc	r3, 7
    1794:	2d c0       	rjmp	.+90     	; 0x17f0 <vfprintf+0xf6>
    1796:	20 ed       	ldi	r18, 0xD0	; 208
    1798:	28 0f       	add	r18, r24
    179a:	2a 30       	cpi	r18, 0x0A	; 10
    179c:	40 f0       	brcs	.+16     	; 0x17ae <vfprintf+0xb4>
    179e:	8e 32       	cpi	r24, 0x2E	; 46
    17a0:	b9 f4       	brne	.+46     	; 0x17d0 <vfprintf+0xd6>
    17a2:	36 fc       	sbrc	r3, 6
    17a4:	81 c1       	rjmp	.+770    	; 0x1aa8 <vfprintf+0x3ae>
    17a6:	23 2d       	mov	r18, r3
    17a8:	20 64       	ori	r18, 0x40	; 64
    17aa:	32 2e       	mov	r3, r18
    17ac:	19 c0       	rjmp	.+50     	; 0x17e0 <vfprintf+0xe6>
    17ae:	36 fe       	sbrs	r3, 6
    17b0:	06 c0       	rjmp	.+12     	; 0x17be <vfprintf+0xc4>
    17b2:	8a e0       	ldi	r24, 0x0A	; 10
    17b4:	98 9e       	mul	r9, r24
    17b6:	20 0d       	add	r18, r0
    17b8:	11 24       	eor	r1, r1
    17ba:	92 2e       	mov	r9, r18
    17bc:	11 c0       	rjmp	.+34     	; 0x17e0 <vfprintf+0xe6>
    17be:	ea e0       	ldi	r30, 0x0A	; 10
    17c0:	2e 9e       	mul	r2, r30
    17c2:	20 0d       	add	r18, r0
    17c4:	11 24       	eor	r1, r1
    17c6:	22 2e       	mov	r2, r18
    17c8:	f3 2d       	mov	r31, r3
    17ca:	f0 62       	ori	r31, 0x20	; 32
    17cc:	3f 2e       	mov	r3, r31
    17ce:	08 c0       	rjmp	.+16     	; 0x17e0 <vfprintf+0xe6>
    17d0:	8c 36       	cpi	r24, 0x6C	; 108
    17d2:	21 f4       	brne	.+8      	; 0x17dc <vfprintf+0xe2>
    17d4:	83 2d       	mov	r24, r3
    17d6:	80 68       	ori	r24, 0x80	; 128
    17d8:	38 2e       	mov	r3, r24
    17da:	02 c0       	rjmp	.+4      	; 0x17e0 <vfprintf+0xe6>
    17dc:	88 36       	cpi	r24, 0x68	; 104
    17de:	41 f4       	brne	.+16     	; 0x17f0 <vfprintf+0xf6>
    17e0:	f7 01       	movw	r30, r14
    17e2:	93 fd       	sbrc	r25, 3
    17e4:	85 91       	lpm	r24, Z+
    17e6:	93 ff       	sbrs	r25, 3
    17e8:	81 91       	ld	r24, Z+
    17ea:	7f 01       	movw	r14, r30
    17ec:	81 11       	cpse	r24, r1
    17ee:	b3 cf       	rjmp	.-154    	; 0x1756 <vfprintf+0x5c>
    17f0:	98 2f       	mov	r25, r24
    17f2:	9f 7d       	andi	r25, 0xDF	; 223
    17f4:	95 54       	subi	r25, 0x45	; 69
    17f6:	93 30       	cpi	r25, 0x03	; 3
    17f8:	28 f4       	brcc	.+10     	; 0x1804 <vfprintf+0x10a>
    17fa:	0c 5f       	subi	r16, 0xFC	; 252
    17fc:	1f 4f       	sbci	r17, 0xFF	; 255
    17fe:	9f e3       	ldi	r25, 0x3F	; 63
    1800:	99 83       	std	Y+1, r25	; 0x01
    1802:	0d c0       	rjmp	.+26     	; 0x181e <vfprintf+0x124>
    1804:	83 36       	cpi	r24, 0x63	; 99
    1806:	31 f0       	breq	.+12     	; 0x1814 <vfprintf+0x11a>
    1808:	83 37       	cpi	r24, 0x73	; 115
    180a:	71 f0       	breq	.+28     	; 0x1828 <vfprintf+0x12e>
    180c:	83 35       	cpi	r24, 0x53	; 83
    180e:	09 f0       	breq	.+2      	; 0x1812 <vfprintf+0x118>
    1810:	59 c0       	rjmp	.+178    	; 0x18c4 <vfprintf+0x1ca>
    1812:	21 c0       	rjmp	.+66     	; 0x1856 <vfprintf+0x15c>
    1814:	f8 01       	movw	r30, r16
    1816:	80 81       	ld	r24, Z
    1818:	89 83       	std	Y+1, r24	; 0x01
    181a:	0e 5f       	subi	r16, 0xFE	; 254
    181c:	1f 4f       	sbci	r17, 0xFF	; 255
    181e:	88 24       	eor	r8, r8
    1820:	83 94       	inc	r8
    1822:	91 2c       	mov	r9, r1
    1824:	53 01       	movw	r10, r6
    1826:	13 c0       	rjmp	.+38     	; 0x184e <vfprintf+0x154>
    1828:	28 01       	movw	r4, r16
    182a:	f2 e0       	ldi	r31, 0x02	; 2
    182c:	4f 0e       	add	r4, r31
    182e:	51 1c       	adc	r5, r1
    1830:	f8 01       	movw	r30, r16
    1832:	a0 80       	ld	r10, Z
    1834:	b1 80       	ldd	r11, Z+1	; 0x01
    1836:	36 fe       	sbrs	r3, 6
    1838:	03 c0       	rjmp	.+6      	; 0x1840 <vfprintf+0x146>
    183a:	69 2d       	mov	r22, r9
    183c:	70 e0       	ldi	r23, 0x00	; 0
    183e:	02 c0       	rjmp	.+4      	; 0x1844 <vfprintf+0x14a>
    1840:	6f ef       	ldi	r22, 0xFF	; 255
    1842:	7f ef       	ldi	r23, 0xFF	; 255
    1844:	c5 01       	movw	r24, r10
    1846:	0e 94 69 0d 	call	0x1ad2	; 0x1ad2 <strnlen>
    184a:	4c 01       	movw	r8, r24
    184c:	82 01       	movw	r16, r4
    184e:	f3 2d       	mov	r31, r3
    1850:	ff 77       	andi	r31, 0x7F	; 127
    1852:	3f 2e       	mov	r3, r31
    1854:	16 c0       	rjmp	.+44     	; 0x1882 <vfprintf+0x188>
    1856:	28 01       	movw	r4, r16
    1858:	22 e0       	ldi	r18, 0x02	; 2
    185a:	42 0e       	add	r4, r18
    185c:	51 1c       	adc	r5, r1
    185e:	f8 01       	movw	r30, r16
    1860:	a0 80       	ld	r10, Z
    1862:	b1 80       	ldd	r11, Z+1	; 0x01
    1864:	36 fe       	sbrs	r3, 6
    1866:	03 c0       	rjmp	.+6      	; 0x186e <vfprintf+0x174>
    1868:	69 2d       	mov	r22, r9
    186a:	70 e0       	ldi	r23, 0x00	; 0
    186c:	02 c0       	rjmp	.+4      	; 0x1872 <vfprintf+0x178>
    186e:	6f ef       	ldi	r22, 0xFF	; 255
    1870:	7f ef       	ldi	r23, 0xFF	; 255
    1872:	c5 01       	movw	r24, r10
    1874:	0e 94 5e 0d 	call	0x1abc	; 0x1abc <strnlen_P>
    1878:	4c 01       	movw	r8, r24
    187a:	f3 2d       	mov	r31, r3
    187c:	f0 68       	ori	r31, 0x80	; 128
    187e:	3f 2e       	mov	r3, r31
    1880:	82 01       	movw	r16, r4
    1882:	33 fc       	sbrc	r3, 3
    1884:	1b c0       	rjmp	.+54     	; 0x18bc <vfprintf+0x1c2>
    1886:	82 2d       	mov	r24, r2
    1888:	90 e0       	ldi	r25, 0x00	; 0
    188a:	88 16       	cp	r8, r24
    188c:	99 06       	cpc	r9, r25
    188e:	b0 f4       	brcc	.+44     	; 0x18bc <vfprintf+0x1c2>
    1890:	b6 01       	movw	r22, r12
    1892:	80 e2       	ldi	r24, 0x20	; 32
    1894:	90 e0       	ldi	r25, 0x00	; 0
    1896:	0e 94 74 0d 	call	0x1ae8	; 0x1ae8 <fputc>
    189a:	2a 94       	dec	r2
    189c:	f4 cf       	rjmp	.-24     	; 0x1886 <vfprintf+0x18c>
    189e:	f5 01       	movw	r30, r10
    18a0:	37 fc       	sbrc	r3, 7
    18a2:	85 91       	lpm	r24, Z+
    18a4:	37 fe       	sbrs	r3, 7
    18a6:	81 91       	ld	r24, Z+
    18a8:	5f 01       	movw	r10, r30
    18aa:	b6 01       	movw	r22, r12
    18ac:	90 e0       	ldi	r25, 0x00	; 0
    18ae:	0e 94 74 0d 	call	0x1ae8	; 0x1ae8 <fputc>
    18b2:	21 10       	cpse	r2, r1
    18b4:	2a 94       	dec	r2
    18b6:	21 e0       	ldi	r18, 0x01	; 1
    18b8:	82 1a       	sub	r8, r18
    18ba:	91 08       	sbc	r9, r1
    18bc:	81 14       	cp	r8, r1
    18be:	91 04       	cpc	r9, r1
    18c0:	71 f7       	brne	.-36     	; 0x189e <vfprintf+0x1a4>
    18c2:	e8 c0       	rjmp	.+464    	; 0x1a94 <vfprintf+0x39a>
    18c4:	84 36       	cpi	r24, 0x64	; 100
    18c6:	11 f0       	breq	.+4      	; 0x18cc <vfprintf+0x1d2>
    18c8:	89 36       	cpi	r24, 0x69	; 105
    18ca:	41 f5       	brne	.+80     	; 0x191c <vfprintf+0x222>
    18cc:	f8 01       	movw	r30, r16
    18ce:	37 fe       	sbrs	r3, 7
    18d0:	07 c0       	rjmp	.+14     	; 0x18e0 <vfprintf+0x1e6>
    18d2:	60 81       	ld	r22, Z
    18d4:	71 81       	ldd	r23, Z+1	; 0x01
    18d6:	82 81       	ldd	r24, Z+2	; 0x02
    18d8:	93 81       	ldd	r25, Z+3	; 0x03
    18da:	0c 5f       	subi	r16, 0xFC	; 252
    18dc:	1f 4f       	sbci	r17, 0xFF	; 255
    18de:	08 c0       	rjmp	.+16     	; 0x18f0 <vfprintf+0x1f6>
    18e0:	60 81       	ld	r22, Z
    18e2:	71 81       	ldd	r23, Z+1	; 0x01
    18e4:	07 2e       	mov	r0, r23
    18e6:	00 0c       	add	r0, r0
    18e8:	88 0b       	sbc	r24, r24
    18ea:	99 0b       	sbc	r25, r25
    18ec:	0e 5f       	subi	r16, 0xFE	; 254
    18ee:	1f 4f       	sbci	r17, 0xFF	; 255
    18f0:	f3 2d       	mov	r31, r3
    18f2:	ff 76       	andi	r31, 0x6F	; 111
    18f4:	3f 2e       	mov	r3, r31
    18f6:	97 ff       	sbrs	r25, 7
    18f8:	09 c0       	rjmp	.+18     	; 0x190c <vfprintf+0x212>
    18fa:	90 95       	com	r25
    18fc:	80 95       	com	r24
    18fe:	70 95       	com	r23
    1900:	61 95       	neg	r22
    1902:	7f 4f       	sbci	r23, 0xFF	; 255
    1904:	8f 4f       	sbci	r24, 0xFF	; 255
    1906:	9f 4f       	sbci	r25, 0xFF	; 255
    1908:	f0 68       	ori	r31, 0x80	; 128
    190a:	3f 2e       	mov	r3, r31
    190c:	2a e0       	ldi	r18, 0x0A	; 10
    190e:	30 e0       	ldi	r19, 0x00	; 0
    1910:	a3 01       	movw	r20, r6
    1912:	0e 94 b0 0d 	call	0x1b60	; 0x1b60 <__ultoa_invert>
    1916:	88 2e       	mov	r8, r24
    1918:	86 18       	sub	r8, r6
    191a:	45 c0       	rjmp	.+138    	; 0x19a6 <vfprintf+0x2ac>
    191c:	85 37       	cpi	r24, 0x75	; 117
    191e:	31 f4       	brne	.+12     	; 0x192c <vfprintf+0x232>
    1920:	23 2d       	mov	r18, r3
    1922:	2f 7e       	andi	r18, 0xEF	; 239
    1924:	b2 2e       	mov	r11, r18
    1926:	2a e0       	ldi	r18, 0x0A	; 10
    1928:	30 e0       	ldi	r19, 0x00	; 0
    192a:	25 c0       	rjmp	.+74     	; 0x1976 <vfprintf+0x27c>
    192c:	93 2d       	mov	r25, r3
    192e:	99 7f       	andi	r25, 0xF9	; 249
    1930:	b9 2e       	mov	r11, r25
    1932:	8f 36       	cpi	r24, 0x6F	; 111
    1934:	c1 f0       	breq	.+48     	; 0x1966 <vfprintf+0x26c>
    1936:	18 f4       	brcc	.+6      	; 0x193e <vfprintf+0x244>
    1938:	88 35       	cpi	r24, 0x58	; 88
    193a:	79 f0       	breq	.+30     	; 0x195a <vfprintf+0x260>
    193c:	b5 c0       	rjmp	.+362    	; 0x1aa8 <vfprintf+0x3ae>
    193e:	80 37       	cpi	r24, 0x70	; 112
    1940:	19 f0       	breq	.+6      	; 0x1948 <vfprintf+0x24e>
    1942:	88 37       	cpi	r24, 0x78	; 120
    1944:	21 f0       	breq	.+8      	; 0x194e <vfprintf+0x254>
    1946:	b0 c0       	rjmp	.+352    	; 0x1aa8 <vfprintf+0x3ae>
    1948:	e9 2f       	mov	r30, r25
    194a:	e0 61       	ori	r30, 0x10	; 16
    194c:	be 2e       	mov	r11, r30
    194e:	b4 fe       	sbrs	r11, 4
    1950:	0d c0       	rjmp	.+26     	; 0x196c <vfprintf+0x272>
    1952:	fb 2d       	mov	r31, r11
    1954:	f4 60       	ori	r31, 0x04	; 4
    1956:	bf 2e       	mov	r11, r31
    1958:	09 c0       	rjmp	.+18     	; 0x196c <vfprintf+0x272>
    195a:	34 fe       	sbrs	r3, 4
    195c:	0a c0       	rjmp	.+20     	; 0x1972 <vfprintf+0x278>
    195e:	29 2f       	mov	r18, r25
    1960:	26 60       	ori	r18, 0x06	; 6
    1962:	b2 2e       	mov	r11, r18
    1964:	06 c0       	rjmp	.+12     	; 0x1972 <vfprintf+0x278>
    1966:	28 e0       	ldi	r18, 0x08	; 8
    1968:	30 e0       	ldi	r19, 0x00	; 0
    196a:	05 c0       	rjmp	.+10     	; 0x1976 <vfprintf+0x27c>
    196c:	20 e1       	ldi	r18, 0x10	; 16
    196e:	30 e0       	ldi	r19, 0x00	; 0
    1970:	02 c0       	rjmp	.+4      	; 0x1976 <vfprintf+0x27c>
    1972:	20 e1       	ldi	r18, 0x10	; 16
    1974:	32 e0       	ldi	r19, 0x02	; 2
    1976:	f8 01       	movw	r30, r16
    1978:	b7 fe       	sbrs	r11, 7
    197a:	07 c0       	rjmp	.+14     	; 0x198a <vfprintf+0x290>
    197c:	60 81       	ld	r22, Z
    197e:	71 81       	ldd	r23, Z+1	; 0x01
    1980:	82 81       	ldd	r24, Z+2	; 0x02
    1982:	93 81       	ldd	r25, Z+3	; 0x03
    1984:	0c 5f       	subi	r16, 0xFC	; 252
    1986:	1f 4f       	sbci	r17, 0xFF	; 255
    1988:	06 c0       	rjmp	.+12     	; 0x1996 <vfprintf+0x29c>
    198a:	60 81       	ld	r22, Z
    198c:	71 81       	ldd	r23, Z+1	; 0x01
    198e:	80 e0       	ldi	r24, 0x00	; 0
    1990:	90 e0       	ldi	r25, 0x00	; 0
    1992:	0e 5f       	subi	r16, 0xFE	; 254
    1994:	1f 4f       	sbci	r17, 0xFF	; 255
    1996:	a3 01       	movw	r20, r6
    1998:	0e 94 b0 0d 	call	0x1b60	; 0x1b60 <__ultoa_invert>
    199c:	88 2e       	mov	r8, r24
    199e:	86 18       	sub	r8, r6
    19a0:	fb 2d       	mov	r31, r11
    19a2:	ff 77       	andi	r31, 0x7F	; 127
    19a4:	3f 2e       	mov	r3, r31
    19a6:	36 fe       	sbrs	r3, 6
    19a8:	0d c0       	rjmp	.+26     	; 0x19c4 <vfprintf+0x2ca>
    19aa:	23 2d       	mov	r18, r3
    19ac:	2e 7f       	andi	r18, 0xFE	; 254
    19ae:	a2 2e       	mov	r10, r18
    19b0:	89 14       	cp	r8, r9
    19b2:	58 f4       	brcc	.+22     	; 0x19ca <vfprintf+0x2d0>
    19b4:	34 fe       	sbrs	r3, 4
    19b6:	0b c0       	rjmp	.+22     	; 0x19ce <vfprintf+0x2d4>
    19b8:	32 fc       	sbrc	r3, 2
    19ba:	09 c0       	rjmp	.+18     	; 0x19ce <vfprintf+0x2d4>
    19bc:	83 2d       	mov	r24, r3
    19be:	8e 7e       	andi	r24, 0xEE	; 238
    19c0:	a8 2e       	mov	r10, r24
    19c2:	05 c0       	rjmp	.+10     	; 0x19ce <vfprintf+0x2d4>
    19c4:	b8 2c       	mov	r11, r8
    19c6:	a3 2c       	mov	r10, r3
    19c8:	03 c0       	rjmp	.+6      	; 0x19d0 <vfprintf+0x2d6>
    19ca:	b8 2c       	mov	r11, r8
    19cc:	01 c0       	rjmp	.+2      	; 0x19d0 <vfprintf+0x2d6>
    19ce:	b9 2c       	mov	r11, r9
    19d0:	a4 fe       	sbrs	r10, 4
    19d2:	0f c0       	rjmp	.+30     	; 0x19f2 <vfprintf+0x2f8>
    19d4:	fe 01       	movw	r30, r28
    19d6:	e8 0d       	add	r30, r8
    19d8:	f1 1d       	adc	r31, r1
    19da:	80 81       	ld	r24, Z
    19dc:	80 33       	cpi	r24, 0x30	; 48
    19de:	21 f4       	brne	.+8      	; 0x19e8 <vfprintf+0x2ee>
    19e0:	9a 2d       	mov	r25, r10
    19e2:	99 7e       	andi	r25, 0xE9	; 233
    19e4:	a9 2e       	mov	r10, r25
    19e6:	09 c0       	rjmp	.+18     	; 0x19fa <vfprintf+0x300>
    19e8:	a2 fe       	sbrs	r10, 2
    19ea:	06 c0       	rjmp	.+12     	; 0x19f8 <vfprintf+0x2fe>
    19ec:	b3 94       	inc	r11
    19ee:	b3 94       	inc	r11
    19f0:	04 c0       	rjmp	.+8      	; 0x19fa <vfprintf+0x300>
    19f2:	8a 2d       	mov	r24, r10
    19f4:	86 78       	andi	r24, 0x86	; 134
    19f6:	09 f0       	breq	.+2      	; 0x19fa <vfprintf+0x300>
    19f8:	b3 94       	inc	r11
    19fa:	a3 fc       	sbrc	r10, 3
    19fc:	11 c0       	rjmp	.+34     	; 0x1a20 <vfprintf+0x326>
    19fe:	a0 fe       	sbrs	r10, 0
    1a00:	06 c0       	rjmp	.+12     	; 0x1a0e <vfprintf+0x314>
    1a02:	b2 14       	cp	r11, r2
    1a04:	88 f4       	brcc	.+34     	; 0x1a28 <vfprintf+0x32e>
    1a06:	28 0c       	add	r2, r8
    1a08:	92 2c       	mov	r9, r2
    1a0a:	9b 18       	sub	r9, r11
    1a0c:	0e c0       	rjmp	.+28     	; 0x1a2a <vfprintf+0x330>
    1a0e:	b2 14       	cp	r11, r2
    1a10:	60 f4       	brcc	.+24     	; 0x1a2a <vfprintf+0x330>
    1a12:	b6 01       	movw	r22, r12
    1a14:	80 e2       	ldi	r24, 0x20	; 32
    1a16:	90 e0       	ldi	r25, 0x00	; 0
    1a18:	0e 94 74 0d 	call	0x1ae8	; 0x1ae8 <fputc>
    1a1c:	b3 94       	inc	r11
    1a1e:	f7 cf       	rjmp	.-18     	; 0x1a0e <vfprintf+0x314>
    1a20:	b2 14       	cp	r11, r2
    1a22:	18 f4       	brcc	.+6      	; 0x1a2a <vfprintf+0x330>
    1a24:	2b 18       	sub	r2, r11
    1a26:	02 c0       	rjmp	.+4      	; 0x1a2c <vfprintf+0x332>
    1a28:	98 2c       	mov	r9, r8
    1a2a:	21 2c       	mov	r2, r1
    1a2c:	a4 fe       	sbrs	r10, 4
    1a2e:	10 c0       	rjmp	.+32     	; 0x1a50 <vfprintf+0x356>
    1a30:	b6 01       	movw	r22, r12
    1a32:	80 e3       	ldi	r24, 0x30	; 48
    1a34:	90 e0       	ldi	r25, 0x00	; 0
    1a36:	0e 94 74 0d 	call	0x1ae8	; 0x1ae8 <fputc>
    1a3a:	a2 fe       	sbrs	r10, 2
    1a3c:	17 c0       	rjmp	.+46     	; 0x1a6c <vfprintf+0x372>
    1a3e:	a1 fc       	sbrc	r10, 1
    1a40:	03 c0       	rjmp	.+6      	; 0x1a48 <vfprintf+0x34e>
    1a42:	88 e7       	ldi	r24, 0x78	; 120
    1a44:	90 e0       	ldi	r25, 0x00	; 0
    1a46:	02 c0       	rjmp	.+4      	; 0x1a4c <vfprintf+0x352>
    1a48:	88 e5       	ldi	r24, 0x58	; 88
    1a4a:	90 e0       	ldi	r25, 0x00	; 0
    1a4c:	b6 01       	movw	r22, r12
    1a4e:	0c c0       	rjmp	.+24     	; 0x1a68 <vfprintf+0x36e>
    1a50:	8a 2d       	mov	r24, r10
    1a52:	86 78       	andi	r24, 0x86	; 134
    1a54:	59 f0       	breq	.+22     	; 0x1a6c <vfprintf+0x372>
    1a56:	a1 fe       	sbrs	r10, 1
    1a58:	02 c0       	rjmp	.+4      	; 0x1a5e <vfprintf+0x364>
    1a5a:	8b e2       	ldi	r24, 0x2B	; 43
    1a5c:	01 c0       	rjmp	.+2      	; 0x1a60 <vfprintf+0x366>
    1a5e:	80 e2       	ldi	r24, 0x20	; 32
    1a60:	a7 fc       	sbrc	r10, 7
    1a62:	8d e2       	ldi	r24, 0x2D	; 45
    1a64:	b6 01       	movw	r22, r12
    1a66:	90 e0       	ldi	r25, 0x00	; 0
    1a68:	0e 94 74 0d 	call	0x1ae8	; 0x1ae8 <fputc>
    1a6c:	89 14       	cp	r8, r9
    1a6e:	38 f4       	brcc	.+14     	; 0x1a7e <vfprintf+0x384>
    1a70:	b6 01       	movw	r22, r12
    1a72:	80 e3       	ldi	r24, 0x30	; 48
    1a74:	90 e0       	ldi	r25, 0x00	; 0
    1a76:	0e 94 74 0d 	call	0x1ae8	; 0x1ae8 <fputc>
    1a7a:	9a 94       	dec	r9
    1a7c:	f7 cf       	rjmp	.-18     	; 0x1a6c <vfprintf+0x372>
    1a7e:	8a 94       	dec	r8
    1a80:	f3 01       	movw	r30, r6
    1a82:	e8 0d       	add	r30, r8
    1a84:	f1 1d       	adc	r31, r1
    1a86:	80 81       	ld	r24, Z
    1a88:	b6 01       	movw	r22, r12
    1a8a:	90 e0       	ldi	r25, 0x00	; 0
    1a8c:	0e 94 74 0d 	call	0x1ae8	; 0x1ae8 <fputc>
    1a90:	81 10       	cpse	r8, r1
    1a92:	f5 cf       	rjmp	.-22     	; 0x1a7e <vfprintf+0x384>
    1a94:	22 20       	and	r2, r2
    1a96:	09 f4       	brne	.+2      	; 0x1a9a <vfprintf+0x3a0>
    1a98:	42 ce       	rjmp	.-892    	; 0x171e <vfprintf+0x24>
    1a9a:	b6 01       	movw	r22, r12
    1a9c:	80 e2       	ldi	r24, 0x20	; 32
    1a9e:	90 e0       	ldi	r25, 0x00	; 0
    1aa0:	0e 94 74 0d 	call	0x1ae8	; 0x1ae8 <fputc>
    1aa4:	2a 94       	dec	r2
    1aa6:	f6 cf       	rjmp	.-20     	; 0x1a94 <vfprintf+0x39a>
    1aa8:	f6 01       	movw	r30, r12
    1aaa:	86 81       	ldd	r24, Z+6	; 0x06
    1aac:	97 81       	ldd	r25, Z+7	; 0x07
    1aae:	02 c0       	rjmp	.+4      	; 0x1ab4 <vfprintf+0x3ba>
    1ab0:	8f ef       	ldi	r24, 0xFF	; 255
    1ab2:	9f ef       	ldi	r25, 0xFF	; 255
    1ab4:	2b 96       	adiw	r28, 0x0b	; 11
    1ab6:	e2 e1       	ldi	r30, 0x12	; 18
    1ab8:	0c 94 2a 0e 	jmp	0x1c54	; 0x1c54 <__epilogue_restores__>

00001abc <strnlen_P>:
    1abc:	fc 01       	movw	r30, r24
    1abe:	05 90       	lpm	r0, Z+
    1ac0:	61 50       	subi	r22, 0x01	; 1
    1ac2:	70 40       	sbci	r23, 0x00	; 0
    1ac4:	01 10       	cpse	r0, r1
    1ac6:	d8 f7       	brcc	.-10     	; 0x1abe <strnlen_P+0x2>
    1ac8:	80 95       	com	r24
    1aca:	90 95       	com	r25
    1acc:	8e 0f       	add	r24, r30
    1ace:	9f 1f       	adc	r25, r31
    1ad0:	08 95       	ret

00001ad2 <strnlen>:
    1ad2:	fc 01       	movw	r30, r24
    1ad4:	61 50       	subi	r22, 0x01	; 1
    1ad6:	70 40       	sbci	r23, 0x00	; 0
    1ad8:	01 90       	ld	r0, Z+
    1ada:	01 10       	cpse	r0, r1
    1adc:	d8 f7       	brcc	.-10     	; 0x1ad4 <strnlen+0x2>
    1ade:	80 95       	com	r24
    1ae0:	90 95       	com	r25
    1ae2:	8e 0f       	add	r24, r30
    1ae4:	9f 1f       	adc	r25, r31
    1ae6:	08 95       	ret

00001ae8 <fputc>:
    1ae8:	0f 93       	push	r16
    1aea:	1f 93       	push	r17
    1aec:	cf 93       	push	r28
    1aee:	df 93       	push	r29
    1af0:	fb 01       	movw	r30, r22
    1af2:	23 81       	ldd	r18, Z+3	; 0x03
    1af4:	21 fd       	sbrc	r18, 1
    1af6:	03 c0       	rjmp	.+6      	; 0x1afe <fputc+0x16>
    1af8:	8f ef       	ldi	r24, 0xFF	; 255
    1afa:	9f ef       	ldi	r25, 0xFF	; 255
    1afc:	2c c0       	rjmp	.+88     	; 0x1b56 <fputc+0x6e>
    1afe:	22 ff       	sbrs	r18, 2
    1b00:	16 c0       	rjmp	.+44     	; 0x1b2e <fputc+0x46>
    1b02:	46 81       	ldd	r20, Z+6	; 0x06
    1b04:	57 81       	ldd	r21, Z+7	; 0x07
    1b06:	24 81       	ldd	r18, Z+4	; 0x04
    1b08:	35 81       	ldd	r19, Z+5	; 0x05
    1b0a:	42 17       	cp	r20, r18
    1b0c:	53 07       	cpc	r21, r19
    1b0e:	44 f4       	brge	.+16     	; 0x1b20 <fputc+0x38>
    1b10:	a0 81       	ld	r26, Z
    1b12:	b1 81       	ldd	r27, Z+1	; 0x01
    1b14:	9d 01       	movw	r18, r26
    1b16:	2f 5f       	subi	r18, 0xFF	; 255
    1b18:	3f 4f       	sbci	r19, 0xFF	; 255
    1b1a:	31 83       	std	Z+1, r19	; 0x01
    1b1c:	20 83       	st	Z, r18
    1b1e:	8c 93       	st	X, r24
    1b20:	26 81       	ldd	r18, Z+6	; 0x06
    1b22:	37 81       	ldd	r19, Z+7	; 0x07
    1b24:	2f 5f       	subi	r18, 0xFF	; 255
    1b26:	3f 4f       	sbci	r19, 0xFF	; 255
    1b28:	37 83       	std	Z+7, r19	; 0x07
    1b2a:	26 83       	std	Z+6, r18	; 0x06
    1b2c:	14 c0       	rjmp	.+40     	; 0x1b56 <fputc+0x6e>
    1b2e:	8b 01       	movw	r16, r22
    1b30:	ec 01       	movw	r28, r24
    1b32:	fb 01       	movw	r30, r22
    1b34:	00 84       	ldd	r0, Z+8	; 0x08
    1b36:	f1 85       	ldd	r31, Z+9	; 0x09
    1b38:	e0 2d       	mov	r30, r0
    1b3a:	09 95       	icall
    1b3c:	89 2b       	or	r24, r25
    1b3e:	e1 f6       	brne	.-72     	; 0x1af8 <fputc+0x10>
    1b40:	d8 01       	movw	r26, r16
    1b42:	16 96       	adiw	r26, 0x06	; 6
    1b44:	8d 91       	ld	r24, X+
    1b46:	9c 91       	ld	r25, X
    1b48:	17 97       	sbiw	r26, 0x07	; 7
    1b4a:	01 96       	adiw	r24, 0x01	; 1
    1b4c:	17 96       	adiw	r26, 0x07	; 7
    1b4e:	9c 93       	st	X, r25
    1b50:	8e 93       	st	-X, r24
    1b52:	16 97       	sbiw	r26, 0x06	; 6
    1b54:	ce 01       	movw	r24, r28
    1b56:	df 91       	pop	r29
    1b58:	cf 91       	pop	r28
    1b5a:	1f 91       	pop	r17
    1b5c:	0f 91       	pop	r16
    1b5e:	08 95       	ret

00001b60 <__ultoa_invert>:
    1b60:	fa 01       	movw	r30, r20
    1b62:	aa 27       	eor	r26, r26
    1b64:	28 30       	cpi	r18, 0x08	; 8
    1b66:	51 f1       	breq	.+84     	; 0x1bbc <__ultoa_invert+0x5c>
    1b68:	20 31       	cpi	r18, 0x10	; 16
    1b6a:	81 f1       	breq	.+96     	; 0x1bcc <__ultoa_invert+0x6c>
    1b6c:	e8 94       	clt
    1b6e:	6f 93       	push	r22
    1b70:	6e 7f       	andi	r22, 0xFE	; 254
    1b72:	6e 5f       	subi	r22, 0xFE	; 254
    1b74:	7f 4f       	sbci	r23, 0xFF	; 255
    1b76:	8f 4f       	sbci	r24, 0xFF	; 255
    1b78:	9f 4f       	sbci	r25, 0xFF	; 255
    1b7a:	af 4f       	sbci	r26, 0xFF	; 255
    1b7c:	b1 e0       	ldi	r27, 0x01	; 1
    1b7e:	3e d0       	rcall	.+124    	; 0x1bfc <__ultoa_invert+0x9c>
    1b80:	b4 e0       	ldi	r27, 0x04	; 4
    1b82:	3c d0       	rcall	.+120    	; 0x1bfc <__ultoa_invert+0x9c>
    1b84:	67 0f       	add	r22, r23
    1b86:	78 1f       	adc	r23, r24
    1b88:	89 1f       	adc	r24, r25
    1b8a:	9a 1f       	adc	r25, r26
    1b8c:	a1 1d       	adc	r26, r1
    1b8e:	68 0f       	add	r22, r24
    1b90:	79 1f       	adc	r23, r25
    1b92:	8a 1f       	adc	r24, r26
    1b94:	91 1d       	adc	r25, r1
    1b96:	a1 1d       	adc	r26, r1
    1b98:	6a 0f       	add	r22, r26
    1b9a:	71 1d       	adc	r23, r1
    1b9c:	81 1d       	adc	r24, r1
    1b9e:	91 1d       	adc	r25, r1
    1ba0:	a1 1d       	adc	r26, r1
    1ba2:	20 d0       	rcall	.+64     	; 0x1be4 <__ultoa_invert+0x84>
    1ba4:	09 f4       	brne	.+2      	; 0x1ba8 <__ultoa_invert+0x48>
    1ba6:	68 94       	set
    1ba8:	3f 91       	pop	r19
    1baa:	2a e0       	ldi	r18, 0x0A	; 10
    1bac:	26 9f       	mul	r18, r22
    1bae:	11 24       	eor	r1, r1
    1bb0:	30 19       	sub	r19, r0
    1bb2:	30 5d       	subi	r19, 0xD0	; 208
    1bb4:	31 93       	st	Z+, r19
    1bb6:	de f6       	brtc	.-74     	; 0x1b6e <__ultoa_invert+0xe>
    1bb8:	cf 01       	movw	r24, r30
    1bba:	08 95       	ret
    1bbc:	46 2f       	mov	r20, r22
    1bbe:	47 70       	andi	r20, 0x07	; 7
    1bc0:	40 5d       	subi	r20, 0xD0	; 208
    1bc2:	41 93       	st	Z+, r20
    1bc4:	b3 e0       	ldi	r27, 0x03	; 3
    1bc6:	0f d0       	rcall	.+30     	; 0x1be6 <__ultoa_invert+0x86>
    1bc8:	c9 f7       	brne	.-14     	; 0x1bbc <__ultoa_invert+0x5c>
    1bca:	f6 cf       	rjmp	.-20     	; 0x1bb8 <__ultoa_invert+0x58>
    1bcc:	46 2f       	mov	r20, r22
    1bce:	4f 70       	andi	r20, 0x0F	; 15
    1bd0:	40 5d       	subi	r20, 0xD0	; 208
    1bd2:	4a 33       	cpi	r20, 0x3A	; 58
    1bd4:	18 f0       	brcs	.+6      	; 0x1bdc <__ultoa_invert+0x7c>
    1bd6:	49 5d       	subi	r20, 0xD9	; 217
    1bd8:	31 fd       	sbrc	r19, 1
    1bda:	40 52       	subi	r20, 0x20	; 32
    1bdc:	41 93       	st	Z+, r20
    1bde:	02 d0       	rcall	.+4      	; 0x1be4 <__ultoa_invert+0x84>
    1be0:	a9 f7       	brne	.-22     	; 0x1bcc <__ultoa_invert+0x6c>
    1be2:	ea cf       	rjmp	.-44     	; 0x1bb8 <__ultoa_invert+0x58>
    1be4:	b4 e0       	ldi	r27, 0x04	; 4
    1be6:	a6 95       	lsr	r26
    1be8:	97 95       	ror	r25
    1bea:	87 95       	ror	r24
    1bec:	77 95       	ror	r23
    1bee:	67 95       	ror	r22
    1bf0:	ba 95       	dec	r27
    1bf2:	c9 f7       	brne	.-14     	; 0x1be6 <__ultoa_invert+0x86>
    1bf4:	00 97       	sbiw	r24, 0x00	; 0
    1bf6:	61 05       	cpc	r22, r1
    1bf8:	71 05       	cpc	r23, r1
    1bfa:	08 95       	ret
    1bfc:	9b 01       	movw	r18, r22
    1bfe:	ac 01       	movw	r20, r24
    1c00:	0a 2e       	mov	r0, r26
    1c02:	06 94       	lsr	r0
    1c04:	57 95       	ror	r21
    1c06:	47 95       	ror	r20
    1c08:	37 95       	ror	r19
    1c0a:	27 95       	ror	r18
    1c0c:	ba 95       	dec	r27
    1c0e:	c9 f7       	brne	.-14     	; 0x1c02 <__ultoa_invert+0xa2>
    1c10:	62 0f       	add	r22, r18
    1c12:	73 1f       	adc	r23, r19
    1c14:	84 1f       	adc	r24, r20
    1c16:	95 1f       	adc	r25, r21
    1c18:	a0 1d       	adc	r26, r0
    1c1a:	08 95       	ret

00001c1c <__prologue_saves__>:
    1c1c:	2f 92       	push	r2
    1c1e:	3f 92       	push	r3
    1c20:	4f 92       	push	r4
    1c22:	5f 92       	push	r5
    1c24:	6f 92       	push	r6
    1c26:	7f 92       	push	r7
    1c28:	8f 92       	push	r8
    1c2a:	9f 92       	push	r9
    1c2c:	af 92       	push	r10
    1c2e:	bf 92       	push	r11
    1c30:	cf 92       	push	r12
    1c32:	df 92       	push	r13
    1c34:	ef 92       	push	r14
    1c36:	ff 92       	push	r15
    1c38:	0f 93       	push	r16
    1c3a:	1f 93       	push	r17
    1c3c:	cf 93       	push	r28
    1c3e:	df 93       	push	r29
    1c40:	cd b7       	in	r28, 0x3d	; 61
    1c42:	de b7       	in	r29, 0x3e	; 62
    1c44:	ca 1b       	sub	r28, r26
    1c46:	db 0b       	sbc	r29, r27
    1c48:	0f b6       	in	r0, 0x3f	; 63
    1c4a:	f8 94       	cli
    1c4c:	de bf       	out	0x3e, r29	; 62
    1c4e:	0f be       	out	0x3f, r0	; 63
    1c50:	cd bf       	out	0x3d, r28	; 61
    1c52:	09 94       	ijmp

00001c54 <__epilogue_restores__>:
    1c54:	2a 88       	ldd	r2, Y+18	; 0x12
    1c56:	39 88       	ldd	r3, Y+17	; 0x11
    1c58:	48 88       	ldd	r4, Y+16	; 0x10
    1c5a:	5f 84       	ldd	r5, Y+15	; 0x0f
    1c5c:	6e 84       	ldd	r6, Y+14	; 0x0e
    1c5e:	7d 84       	ldd	r7, Y+13	; 0x0d
    1c60:	8c 84       	ldd	r8, Y+12	; 0x0c
    1c62:	9b 84       	ldd	r9, Y+11	; 0x0b
    1c64:	aa 84       	ldd	r10, Y+10	; 0x0a
    1c66:	b9 84       	ldd	r11, Y+9	; 0x09
    1c68:	c8 84       	ldd	r12, Y+8	; 0x08
    1c6a:	df 80       	ldd	r13, Y+7	; 0x07
    1c6c:	ee 80       	ldd	r14, Y+6	; 0x06
    1c6e:	fd 80       	ldd	r15, Y+5	; 0x05
    1c70:	0c 81       	ldd	r16, Y+4	; 0x04
    1c72:	1b 81       	ldd	r17, Y+3	; 0x03
    1c74:	aa 81       	ldd	r26, Y+2	; 0x02
    1c76:	b9 81       	ldd	r27, Y+1	; 0x01
    1c78:	ce 0f       	add	r28, r30
    1c7a:	d1 1d       	adc	r29, r1
    1c7c:	0f b6       	in	r0, 0x3f	; 63
    1c7e:	f8 94       	cli
    1c80:	de bf       	out	0x3e, r29	; 62
    1c82:	0f be       	out	0x3f, r0	; 63
    1c84:	cd bf       	out	0x3d, r28	; 61
    1c86:	ed 01       	movw	r28, r26
    1c88:	08 95       	ret

00001c8a <_exit>:
    1c8a:	f8 94       	cli

00001c8c <__stop_program>:
    1c8c:	ff cf       	rjmp	.-2      	; 0x1c8c <__stop_program>
